Certificate:
    Data:
        Version: 3 (0x2)
        Serial Number:
            d9:8a:4c:a4:2f:5e:4b:4f:ed:27:45:77:9a:cc:1a:7a
        Signature Algorithm: sha256WithRSAEncryption
        Issuer: O=NIIS, CN=NEDS Mock Root Certification Authority
        Validity
            Not Before: Sep 14 16:56:36 2021 GMT
            Not After : Sep 14 16:56:36 2026 GMT
        Subject: CN=cef-ap.neds
        Subject Public Key Info:
            Public Key Algorithm: rsaEncryption
                RSA Public-Key: (2048 bit)
                Modulus:
                    00:b2:74:0f:61:75:d9:1b:13:e6:7f:9b:1a:8b:73:
                    e8:f0:91:cb:50:98:95:74:74:5e:57:c6:09:c6:9c:
                    74:c9:3d:a9:8e:c3:f2:cc:d4:88:da:38:76:08:59:
                    67:ea:24:2e:57:3b:08:55:13:44:7d:52:ce:a5:9d:
                    88:e7:16:9c:56:85:21:6b:e7:d2:fe:c9:0c:a4:e3:
                    4c:e7:bb:1b:b5:d0:be:33:02:81:fa:78:19:66:20:
                    88:0a:15:06:36:ec:76:cf:6a:cb:19:ce:69:3e:4c:
                    70:b3:bf:01:99:d1:1f:6c:27:d4:44:81:b0:21:a9:
                    0c:e7:30:4c:e9:1c:c0:72:8a:a4:88:60:e3:7d:b3:
                    e7:4d:db:97:ec:46:77:16:05:a9:4c:39:6d:d9:40:
                    96:e0:88:a5:40:f9:e0:31:09:b6:2a:d1:9f:62:8d:
                    90:ee:a3:82:7a:60:7b:1e:51:f8:46:be:14:3e:09:
                    e8:de:6f:13:dd:18:d4:0a:97:af:7a:f6:71:c8:39:
                    9d:d2:fc:b9:8d:b4:98:13:fb:47:19:6b:ac:fc:f5:
                    8f:9d:26:5f:8f:4f:88:43:60:6d:9b:93:60:b0:f8:
                    3e:05:b6:e0:98:b8:9e:bd:42:6f:06:14:04:0f:d3:
                    75:8a:80:1f:dd:a8:41:c7:df:58:44:0b:91:e1:3c:
                    4d:0d
                Exponent: 65537 (0x10001)
        X509v3 extensions:
            X509v3 Basic Constraints: 
                CA:FALSE
            X509v3 Key Usage: critical
                Digital Signature, Key Encipherment
            X509v3 Extended Key Usage: critical
                TLS Web Server Authentication, TLS Web Client Authentication
            X509v3 Subject Key Identifier: 
                65:80:8A:4B:2A:D3:25:E6:99:29:40:1C:4A:E0:D2:32:BD:A2:16:A6
            X509v3 Authority Key Identifier: 
                keyid:6D:AE:34:0C:F9:30:83:3C:11:DA:D2:D6:B7:9D:D8:CD:95:9D:86:0C

            X509v3 Issuer Alternative Name: 
                URI:http://ca.mock.neds/, email:certmaster@mock.neds
    Signature Algorithm: sha256WithRSAEncryption
         39:f4:fa:e6:bc:92:00:16:3a:72:4a:b2:66:4d:4e:43:1a:c8:
         6d:1c:4b:cd:ab:3c:8c:85:d2:b3:a7:59:17:c4:16:59:5d:d5:
         ae:55:18:2a:1b:18:20:4d:8b:2a:b4:d6:86:2d:1e:db:77:97:
         78:db:8d:89:aa:57:e2:e9:5c:d6:87:47:ae:a9:34:15:65:4b:
         0d:2d:87:54:d1:f3:11:1d:72:e3:14:9f:e6:db:98:26:65:da:
         4f:3c:9b:9a:94:e5:23:2c:06:47:ab:ab:8f:82:62:01:dd:b6:
         51:5f:08:e3:1a:d2:6e:60:4a:42:5b:bc:67:e9:7e:84:ac:98:
         3d:2d:9c:44:74:d8:75:00:15:06:c6:ad:47:1e:ec:98:61:64:
         a0:84:23:99:22:9c:81:38:d5:5a:9e:5b:5d:7b:88:a6:54:df:
         e0:ae:82:0c:37:4e:42:c1:a9:ab:8f:a3:74:8b:2a:44:1c:73:
         22:79:3a:4a:36:37:57:a9:32:9a:20:ed:88:ee:4f:20:9f:67:
         9c:e8:07:d2:82:9d:ac:73:f2:c1:0a:57:b1:ff:34:df:b3:e4:
         e0:29:e0:39:1f:91:88:d5:6a:e7:97:40:fb:9d:d1:32:f9:a2:
         1b:63:eb:5d:3e:b2:75:b5:7c:1d:20:28:d9:6c:84:2e:5b:0a:
         63:aa:70:6f:06:80:2f:0c:d8:f8:1c:7c:4b:23:cd:f6:f1:12:
         5e:4b:1c:ab:1a:6e:4c:05:47:17:6b:2d:65:70:90:e0:a9:67:
         44:84:14:3d:ab:c8:87:27:f4:af:1b:ee:af:ca:13:bc:85:84:
         4f:02:e5:d6:89:b0:ed:6a:d9:84:5c:5e:34:54:23:ec:16:40:
         6a:ae:8c:20:7e:56:6b:74:6e:9b:7e:2e:4a:90:56:24:8b:39:
         76:d2:6e:d8:93:ce:a6:ae:99:d1:3b:a0:7a:23:99:7a:ae:f1:
         a8:d9:f9:d1:2f:e2:2a:38:d7:e5:3b:d1:9f:fe:92:e6:a6:df:
         0f:ae:74:21:36:f0:71:be:36:33:12:02:eb:94:6a:65:ad:cd:
         65:8f:0f:9b:6d:ff:48:cf:6b:80:a5:96:95:47:58:8e:99:0d:
         b3:c4:1c:a4:af:00:1d:5d:34:30:33:d6:25:c4:af:43:f4:2f:
         e9:3a:42:be:a2:05:39:30:a1:40:1d:93:a0:6a:cd:20:63:81:
         15:32:03:9d:3a:20:50:15:9d:47:8a:6a:60:99:58:cb:74:29:
         28:7e:01:67:74:19:21:53:59:0d:0e:36:3f:aa:77:be:ad:40:
         cc:95:bf:9c:74:c7:e1:6c:58:97:df:6b:43:e2:7f:97:76:8e:
         93:7c:b1:ef:7e:28:0e:42
-----BEGIN CERTIFICATE-----
MIIEmTCCAoGgAwIBAgIRANmKTKQvXktP7SdFd5rMGnowDQYJKoZIhvcNAQELBQAw
QDENMAsGA1UECgwETklJUzEvMC0GA1UEAwwmTkVEUyBNb2NrIFJvb3QgQ2VydGlm
aWNhdGlvbiBBdXRob3JpdHkwHhcNMjEwOTE0MTY1NjM2WhcNMjYwOTE0MTY1NjM2
WjAWMRQwEgYDVQQDDAtjZWYtYXAubmVkczCCASIwDQYJKoZIhvcNAQEBBQADggEP
ADCCAQoCggEBALJ0D2F12RsT5n+bGotz6PCRy1CYlXR0XlfGCcacdMk9qY7D8szU
iNo4dghZZ+okLlc7CFUTRH1SzqWdiOcWnFaFIWvn0v7JDKTjTOe7G7XQvjMCgfp4
GWYgiAoVBjbsds9qyxnOaT5McLO/AZnRH2wn1ESBsCGpDOcwTOkcwHKKpIhg432z
503bl+xGdxYFqUw5bdlAluCIpUD54DEJtirRn2KNkO6jgnpgex5R+Ea+FD4J6N5v
E90Y1AqXr3r2ccg5ndL8uY20mBP7RxlrrPz1j50mX49PiENgbZuTYLD4PgW24Ji4
nr1CbwYUBA/TdYqAH92oQcffWEQLkeE8TQ0CAwEAAaOBtzCBtDAJBgNVHRMEAjAA
MA4GA1UdDwEB/wQEAwIFoDAgBgNVHSUBAf8EFjAUBggrBgEFBQcDAQYIKwYBBQUH
AwIwHQYDVR0OBBYEFGWAiksq0yXmmSlAHErg0jK9ohamMB8GA1UdIwQYMBaAFG2u
NAz5MIM8EdrS1red2M2VnYYMMDUGA1UdEgQuMCyGFGh0dHA6Ly9jYS5tb2NrLm5l
ZHMvgRRjZXJ0bWFzdGVyQG1vY2submVkczANBgkqhkiG9w0BAQsFAAOCAgEAOfT6
5rySABY6ckqyZk1OQxrIbRxLzas8jIXSs6dZF8QWWV3VrlUYKhsYIE2LKrTWhi0e
23eXeNuNiapX4ulc1odHrqk0FWVLDS2HVNHzER1y4xSf5tuYJmXaTzybmpTlIywG
R6urj4JiAd22UV8I4xrSbmBKQlu8Z+l+hKyYPS2cRHTYdQAVBsatRx7smGFkoIQj
mSKcgTjVWp5bXXuIplTf4K6CDDdOQsGpq4+jdIsqRBxzInk6SjY3V6kymiDtiO5P
IJ9nnOgH0oKdrHPywQpXsf8037Pk4CngOR+RiNVq55dA+53RMvmiG2PrXT6ydbV8
HSAo2WyELlsKY6pwbwaALwzY+Bx8SyPN9vESXkscqxpuTAVHF2stZXCQ4KlnRIQU
PavIhyf0rxvur8oTvIWETwLl1omw7WrZhFxeNFQj7BZAaq6MIH5Wa3Rum34uSpBW
JIs5dtJu2JPOpq6Z0TugeiOZeq7xqNn50S/iKjjX5TvRn/6S5qbfD650ITbwcb42
MxIC65RqZa3NZY8Pm23/SM9rgKWWlUdYjpkNs8QcpK8AHV00MDPWJcSvQ/Qv6TpC
vqIFOTChQB2ToGrNIGOBFTIDnTogUBWdR4pqYJlYy3QpKH4BZ3QZIVNZDQ42P6p3
vq1AzJW/nHTH4WxYl99rQ+J/l3aOk3yx734oDkI=
-----END CERTIFICATE-----
