Certificate:
    Data:
        Version: 3 (0x2)
        Serial Number:
            b4:a0:14:91:1c:56:09:c0:61:ac:83:39:0e:29:ad:27
        Signature Algorithm: sha256WithRSAEncryption
        Issuer: O=NIIS, CN=NEDS Mock Root Certification Authority
        Validity
            Not Before: Oct 11 13:37:37 2021 GMT
            Not After : Oct 11 13:37:37 2026 GMT
        Subject: CN=cef-smp.neds
        Subject Public Key Info:
            Public Key Algorithm: rsaEncryption
                RSA Public-Key: (2048 bit)
                Modulus:
                    00:ca:81:e5:88:4f:3e:b2:d1:df:1d:32:e1:11:f1:
                    b5:b3:e7:73:6e:3c:73:f0:a8:99:d0:a4:71:0e:a5:
                    ef:e8:b6:58:cf:83:88:f4:54:47:ef:47:7e:42:4b:
                    8e:20:69:5f:ba:99:39:c8:df:18:f2:cb:bb:12:6c:
                    43:0b:5e:2b:81:0b:8a:e6:88:1a:45:4b:39:06:23:
                    23:aa:86:99:6e:bb:5e:b1:f8:da:b2:a5:3b:50:7e:
                    18:90:56:3c:b1:0a:4e:f8:4a:83:bf:5f:fd:92:e7:
                    9b:cd:66:54:d0:79:38:b7:33:bd:fa:f1:6f:76:44:
                    6d:fd:2e:c7:fe:aa:1b:f8:b8:15:7e:eb:53:b1:2e:
                    0b:4d:6e:0f:89:a8:d3:0d:ee:8f:2f:c9:d0:84:de:
                    f7:0c:f3:f9:86:72:b5:91:29:11:97:ba:fd:54:a2:
                    51:14:6e:12:a4:53:11:07:06:c0:3b:1e:1f:f9:86:
                    fa:f5:75:7e:91:be:a4:e4:97:d3:fa:37:ab:ff:00:
                    c4:28:ee:5b:34:aa:43:37:0e:6c:50:b4:a1:93:73:
                    50:43:c9:a7:81:7c:c6:10:5c:8d:9e:60:b7:ed:1c:
                    8c:a9:41:4c:d2:2d:b8:79:3d:19:1d:b3:44:1a:85:
                    f2:63:25:0c:cc:74:a1:c5:7a:6b:17:6c:83:f9:48:
                    ba:4d
                Exponent: 65537 (0x10001)
        X509v3 extensions:
            X509v3 Basic Constraints: 
                CA:FALSE
            X509v3 Key Usage: critical
                Digital Signature, Key Encipherment
            X509v3 Extended Key Usage: critical
                TLS Web Server Authentication, TLS Web Client Authentication
            X509v3 Subject Key Identifier: 
                EE:2D:61:1E:4E:C2:43:E1:73:20:EA:1D:8B:EF:CC:12:9C:6B:F9:4F
            X509v3 Authority Key Identifier: 
                keyid:6D:AE:34:0C:F9:30:83:3C:11:DA:D2:D6:B7:9D:D8:CD:95:9D:86:0C

            X509v3 Issuer Alternative Name: 
                URI:http://ca.mock.neds/, email:certmaster@mock.neds
    Signature Algorithm: sha256WithRSAEncryption
         0e:ff:89:d3:c7:a4:ff:66:fc:fa:5c:c1:f1:0d:51:25:a2:25:
         df:c4:7d:bf:b2:e0:92:85:43:fa:74:01:ae:14:b2:ec:80:bc:
         e5:46:2f:43:54:13:a7:e7:61:ee:43:e0:ca:80:31:69:59:e0:
         8b:f9:41:8e:29:c7:8b:f5:29:11:68:0b:01:e2:dd:50:19:94:
         4e:f2:d1:5e:fe:d6:32:db:66:33:e7:1f:16:2a:c4:c1:20:be:
         a7:e8:f6:a5:4f:15:3b:74:9c:1e:58:df:07:96:45:2b:72:5a:
         e0:fc:cd:c4:f3:3b:15:21:c9:ba:c8:97:01:4b:04:c9:6b:25:
         68:49:02:5e:48:81:bf:59:ec:2d:89:37:f8:b5:12:8c:f4:bb:
         ce:9e:bd:45:19:24:ad:2c:71:02:3e:ce:d7:50:1b:62:4f:7d:
         ca:ef:94:b0:da:8c:0b:da:04:7c:8b:a2:c8:bb:16:0e:53:6e:
         63:8a:97:27:6d:e4:28:10:ad:19:d7:d2:81:fa:2e:d6:f3:60:
         e9:0a:6d:82:dd:f8:45:12:20:99:6e:55:0b:7b:e0:b2:5d:de:
         4d:e3:39:a1:b2:71:c1:b8:40:18:a5:c5:5d:27:99:3d:c4:15:
         87:82:32:50:85:56:46:e8:a7:3c:c8:41:16:2b:5b:e1:04:31:
         ae:b6:04:b1:b0:6f:f0:f3:6b:e3:9b:e6:0d:d8:dd:c4:9d:cc:
         bd:cf:da:a1:fe:bb:d7:95:28:06:f7:af:d7:e2:5c:01:b7:a2:
         98:f2:23:32:18:db:d3:06:6d:a3:c4:f3:2a:00:0e:95:d9:48:
         7f:3b:28:5b:dd:84:0f:be:88:40:9f:bc:61:e7:be:cd:ff:e9:
         d5:89:10:20:d9:69:20:e3:4c:1d:53:92:36:73:8a:c1:7c:9c:
         8c:17:6f:49:b0:cb:21:4f:cb:18:3c:be:76:60:71:ed:02:45:
         d1:35:2c:e4:0f:34:47:ec:aa:d6:f9:8d:c9:95:5d:53:73:f6:
         fd:87:16:07:ab:26:7c:9f:b9:e2:58:cc:f3:8e:45:e0:36:e4:
         c6:f1:cc:7b:d6:63:92:c4:7a:e3:be:ab:b5:72:85:cb:02:6a:
         53:f9:68:da:ca:6e:48:0b:bf:b3:f2:b3:52:8a:29:a8:7d:87:
         6a:72:26:21:f7:0e:e0:9d:da:0f:8e:89:34:b2:be:e7:48:4c:
         67:ef:59:eb:65:97:97:a3:7d:63:c4:95:d9:c6:34:59:b0:89:
         64:eb:b7:fe:18:93:c4:05:84:ce:d5:66:d7:80:37:61:1b:ad:
         e3:fd:7e:cd:37:09:5c:24:a9:81:16:7c:14:46:41:9c:9d:85:
         02:9f:02:7e:91:59:ef:67
-----BEGIN CERTIFICATE-----
MIIEmjCCAoKgAwIBAgIRALSgFJEcVgnAYayDOQ4prScwDQYJKoZIhvcNAQELBQAw
QDENMAsGA1UECgwETklJUzEvMC0GA1UEAwwmTkVEUyBNb2NrIFJvb3QgQ2VydGlm
aWNhdGlvbiBBdXRob3JpdHkwHhcNMjExMDExMTMzNzM3WhcNMjYxMDExMTMzNzM3
WjAXMRUwEwYDVQQDDAxjZWYtc21wLm5lZHMwggEiMA0GCSqGSIb3DQEBAQUAA4IB
DwAwggEKAoIBAQDKgeWITz6y0d8dMuER8bWz53NuPHPwqJnQpHEOpe/otljPg4j0
VEfvR35CS44gaV+6mTnI3xjyy7sSbEMLXiuBC4rmiBpFSzkGIyOqhpluu16x+Nqy
pTtQfhiQVjyxCk74SoO/X/2S55vNZlTQeTi3M7368W92RG39Lsf+qhv4uBV+61Ox
LgtNbg+JqNMN7o8vydCE3vcM8/mGcrWRKRGXuv1UolEUbhKkUxEHBsA7Hh/5hvr1
dX6RvqTkl9P6N6v/AMQo7ls0qkM3DmxQtKGTc1BDyaeBfMYQXI2eYLftHIypQUzS
Lbh5PRkds0QahfJjJQzMdKHFemsXbIP5SLpNAgMBAAGjgbcwgbQwCQYDVR0TBAIw
ADAOBgNVHQ8BAf8EBAMCBaAwIAYDVR0lAQH/BBYwFAYIKwYBBQUHAwEGCCsGAQUF
BwMCMB0GA1UdDgQWBBTuLWEeTsJD4XMg6h2L78wSnGv5TzAfBgNVHSMEGDAWgBRt
rjQM+TCDPBHa0ta3ndjNlZ2GDDA1BgNVHRIELjAshhRodHRwOi8vY2EubW9jay5u
ZWRzL4EUY2VydG1hc3RlckBtb2NrLm5lZHMwDQYJKoZIhvcNAQELBQADggIBAA7/
idPHpP9m/PpcwfENUSWiJd/Efb+y4JKFQ/p0Aa4UsuyAvOVGL0NUE6fnYe5D4MqA
MWlZ4Iv5QY4px4v1KRFoCwHi3VAZlE7y0V7+1jLbZjPnHxYqxMEgvqfo9qVPFTt0
nB5Y3weWRStyWuD8zcTzOxUhybrIlwFLBMlrJWhJAl5Igb9Z7C2JN/i1Eoz0u86e
vUUZJK0scQI+ztdQG2JPfcrvlLDajAvaBHyLosi7Fg5TbmOKlydt5CgQrRnX0oH6
LtbzYOkKbYLd+EUSIJluVQt74LJd3k3jOaGyccG4QBilxV0nmT3EFYeCMlCFVkbo
pzzIQRYrW+EEMa62BLGwb/Dza+Ob5g3Y3cSdzL3P2qH+u9eVKAb3r9fiXAG3opjy
IzIY29MGbaPE8yoADpXZSH87KFvdhA++iECfvGHnvs3/6dWJECDZaSDjTB1TkjZz
isF8nIwXb0mwyyFPyxg8vnZgce0CRdE1LOQPNEfsqtb5jcmVXVNz9v2HFgerJnyf
ueJYzPOOReA25MbxzHvWY5LEeuO+q7VyhcsCalP5aNrKbkgLv7Pys1KKKah9h2py
JiH3DuCd2g+OiTSyvudITGfvWetll5ejfWPEldnGNFmwiWTrt/4Yk8QFhM7VZteA
N2EbreP9fs03CVwkqYEWfBRGQZydhQKfAn6RWe9n
-----END CERTIFICATE-----
