Certificate:
    Data:
        Version: 3 (0x2)
        Serial Number:
            77:57:cc:6f:9a:3f:02:e8:c6:f1:10:00:4e:cc:db:9f
        Signature Algorithm: sha256WithRSAEncryption
        Issuer: O=NIIS, CN=NEDS Mock Root Certification Authority
        Validity
            Not Before: Sep 14 16:56:32 2021 GMT
            Not After : Sep 14 16:56:32 2026 GMT
        Subject: CN=cef-ap.lxd
        Subject Public Key Info:
            Public Key Algorithm: rsaEncryption
                RSA Public-Key: (2048 bit)
                Modulus:
                    00:96:50:21:86:94:dc:7e:11:60:79:10:a9:31:b9:
                    7d:b6:df:24:ad:51:cc:e9:12:00:33:0b:a9:60:8a:
                    ae:8b:a8:28:e5:cf:9a:c6:7d:75:61:2e:08:67:b5:
                    fc:18:e7:f7:86:fe:e0:bf:ef:01:e1:ba:82:ec:66:
                    34:54:f0:86:f7:eb:50:23:d1:ba:c8:8c:af:e4:e6:
                    00:4d:1c:50:9f:b6:53:1a:45:65:69:85:73:e0:c5:
                    79:16:9e:11:68:6c:a2:bb:32:86:0e:fd:be:27:17:
                    9a:05:bd:9c:f5:a5:6b:ad:d4:0b:01:64:28:a9:80:
                    bc:a9:49:4e:0d:6b:9e:b6:f1:2c:3f:0e:e7:01:83:
                    78:64:ce:b2:b4:3d:c1:23:3b:61:d1:ff:7c:b2:f5:
                    a3:ec:da:b7:09:1c:50:92:a0:b0:33:2c:de:49:d3:
                    2a:62:81:ce:be:81:98:f3:a5:b0:96:3d:9c:9e:49:
                    e9:81:2e:e6:75:8c:3e:02:f2:b3:99:1c:40:79:c7:
                    ce:f5:16:67:a2:20:ad:01:42:aa:e0:f9:a4:8b:d5:
                    7b:c7:a9:32:22:9a:14:30:42:07:e6:85:99:fd:eb:
                    58:19:b6:78:90:1c:91:f0:34:79:26:91:69:37:e8:
                    5c:d5:09:cf:c1:b5:bd:25:de:7d:ad:01:12:17:be:
                    07:2d
                Exponent: 65537 (0x10001)
        X509v3 extensions:
            X509v3 Basic Constraints:
                CA:FALSE
            X509v3 Key Usage: critical
                Digital Signature, Key Encipherment
            X509v3 Extended Key Usage: critical
                TLS Web Server Authentication, TLS Web Client Authentication
            X509v3 Subject Key Identifier:
                FA:7F:D4:39:76:51:7D:86:4C:53:B3:43:3E:AB:5E:FA:56:14:92:D7
            X509v3 Authority Key Identifier:
                keyid:6D:AE:34:0C:F9:30:83:3C:11:DA:D2:D6:B7:9D:D8:CD:95:9D:86:0C

            X509v3 Issuer Alternative Name:
                URI:http://ca.mock.neds/, email:certmaster@mock.neds
    Signature Algorithm: sha256WithRSAEncryption
         63:d3:e8:1f:c0:20:8b:b2:51:09:5e:e6:33:b4:53:d9:a5:f6:
         e6:22:aa:80:a5:ff:24:92:73:1d:71:68:70:7b:e8:78:ec:3d:
         f4:68:3b:01:d7:7c:1b:7e:2a:5c:00:7b:68:8d:71:6f:bc:c5:
         83:fb:71:34:da:dc:fe:be:1f:50:aa:70:bf:5b:ff:bf:86:59:
         e3:72:11:32:6c:42:e7:45:d2:7b:fa:dd:21:96:f4:af:c5:c7:
         14:43:04:9e:a7:4d:55:5e:e2:cc:f5:22:60:ea:af:2b:bd:5a:
         b0:98:a5:cf:b0:f5:57:b3:da:88:8c:fa:e7:ac:83:90:1a:a6:
         51:39:cf:e1:a4:e1:d3:16:c7:81:10:02:59:e0:25:e9:ce:1a:
         a7:e4:ef:7c:fd:11:d3:72:f8:10:d4:38:e2:fc:f5:3c:cb:81:
         39:ba:95:4b:00:36:57:bb:d2:8b:00:d4:a6:a2:d4:cc:10:55:
         d2:04:f2:45:08:fd:ae:4a:fb:85:b0:a9:d2:a6:86:ef:67:03:
         d8:75:3f:26:31:72:45:9e:05:7a:48:32:1e:cf:29:d9:a2:43:
         ee:9e:ef:0d:c0:26:71:ae:ed:9a:e8:13:e0:1d:93:e1:0d:85:
         18:6d:42:e4:8a:b6:07:a2:25:51:92:45:07:38:07:95:0a:05:
         54:6e:ec:4c:26:f7:e8:eb:d4:f9:bc:b7:c1:ca:a4:81:68:b6:
         17:57:55:b2:f8:17:b3:89:75:e5:8d:22:98:ea:e2:10:96:f1:
         f2:58:26:f5:d7:d5:18:fe:ad:da:5e:0b:0d:ae:49:72:d6:0d:
         01:67:bf:f9:a8:6c:6a:73:07:c8:cf:e3:97:b9:38:ae:82:16:
         9d:6e:02:af:c2:73:8b:98:43:1d:5a:63:74:be:11:7d:8f:43:
         39:d2:fc:99:3e:9a:d5:22:f4:15:67:d2:5a:a8:4b:b5:45:07:
         ab:d6:ac:68:bd:11:47:db:e6:69:fd:3e:89:12:cd:73:e3:2e:
         a7:a8:62:94:cc:19:0c:78:97:1f:5d:d4:32:df:9e:c8:fa:1a:
         08:0b:c0:41:1b:ed:d4:d7:03:4c:ee:61:94:2f:aa:47:db:fe:
         ab:f3:36:7f:9f:87:27:cc:11:76:d3:56:fa:99:0a:df:63:6c:
         61:2d:a6:e1:59:2f:47:bc:2e:ca:c0:0d:e0:91:36:ff:f7:13:
         85:d3:62:16:a4:88:8a:91:51:b5:a0:03:da:e0:6c:bf:3e:c7:
         42:a5:3f:47:1e:63:9e:b0:75:72:1d:7e:91:b6:89:c9:cd:f6:
         ec:92:09:6d:28:30:38:c2:77:0d:89:29:ea:f3:f7:32:6f:45:
         ad:05:6b:b0:37:de:ea:ba
-----BEGIN CERTIFICATE-----
MIIElzCCAn+gAwIBAgIQd1fMb5o/AujG8RAATszbnzANBgkqhkiG9w0BAQsFADBA
MQ0wCwYDVQQKDAROSUlTMS8wLQYDVQQDDCZORURTIE1vY2sgUm9vdCBDZXJ0aWZp
Y2F0aW9uIEF1dGhvcml0eTAeFw0yMTA5MTQxNjU2MzJaFw0yNjA5MTQxNjU2MzJa
MBUxEzARBgNVBAMMCmNlZi1hcC5seGQwggEiMA0GCSqGSIb3DQEBAQUAA4IBDwAw
ggEKAoIBAQCWUCGGlNx+EWB5EKkxuX223yStUczpEgAzC6lgiq6LqCjlz5rGfXVh
LghntfwY5/eG/uC/7wHhuoLsZjRU8Ib361Aj0brIjK/k5gBNHFCftlMaRWVphXPg
xXkWnhFobKK7MoYO/b4nF5oFvZz1pWut1AsBZCipgLypSU4Na5628Sw/DucBg3hk
zrK0PcEjO2HR/3yy9aPs2rcJHFCSoLAzLN5J0ypigc6+gZjzpbCWPZyeSemBLuZ1
jD4C8rOZHEB5x871FmeiIK0BQqrg+aSL1XvHqTIimhQwQgfmhZn961gZtniQHJHw
NHkmkWk36FzVCc/Btb0l3n2tARIXvgctAgMBAAGjgbcwgbQwCQYDVR0TBAIwADAO
BgNVHQ8BAf8EBAMCBaAwIAYDVR0lAQH/BBYwFAYIKwYBBQUHAwEGCCsGAQUFBwMC
MB0GA1UdDgQWBBT6f9Q5dlF9hkxTs0M+q176VhSS1zAfBgNVHSMEGDAWgBRtrjQM
+TCDPBHa0ta3ndjNlZ2GDDA1BgNVHRIELjAshhRodHRwOi8vY2EubW9jay5uZWRz
L4EUY2VydG1hc3RlckBtb2NrLm5lZHMwDQYJKoZIhvcNAQELBQADggIBAGPT6B/A
IIuyUQle5jO0U9ml9uYiqoCl/ySScx1xaHB76HjsPfRoOwHXfBt+KlwAe2iNcW+8
xYP7cTTa3P6+H1CqcL9b/7+GWeNyETJsQudF0nv63SGW9K/FxxRDBJ6nTVVe4sz1
ImDqryu9WrCYpc+w9Vez2oiM+uesg5AaplE5z+Gk4dMWx4EQAlngJenOGqfk73z9
EdNy+BDUOOL89TzLgTm6lUsANle70osA1Kai1MwQVdIE8kUI/a5K+4WwqdKmhu9n
A9h1PyYxckWeBXpIMh7PKdmiQ+6e7w3AJnGu7ZroE+Adk+ENhRhtQuSKtgeiJVGS
RQc4B5UKBVRu7Ewm9+jr1Pm8t8HKpIFothdXVbL4F7OJdeWNIpjq4hCW8fJYJvXX
1Rj+rdpeCw2uSXLWDQFnv/mobGpzB8jP45e5OK6CFp1uAq/Cc4uYQx1aY3S+EX2P
QznS/Jk+mtUi9BVn0lqoS7VFB6vWrGi9EUfb5mn9PokSzXPjLqeoYpTMGQx4lx9d
1DLfnsj6GggLwEEb7dTXA0zuYZQvqkfb/qvzNn+fhyfMEXbTVvqZCt9jbGEtpuFZ
L0e8LsrADeCRNv/3E4XTYhakiIqRUbWgA9rgbL8+x0KlP0ceY56wdXIdfpG2icnN
9uySCW0oMDjCdw2JKerz9zJvRa0Fa7A33uq6
-----END CERTIFICATE-----
