Certificate:
    Data:
        Version: 3 (0x2)
        Serial Number:
            a0:9f:c3:97:68:04:4c:a6:ca:e3:ad:39:af:67:12:17
        Signature Algorithm: sha256WithRSAEncryption
        Issuer: O=NIIS, CN=NEDS Mock Root Certification Authority
        Validity
            Not Before: Oct 15 16:31:11 2021 GMT
            Not After : Oct 15 16:31:11 2026 GMT
        Subject: CN=cef-smp.neds
        Subject Public Key Info:
            Public Key Algorithm: rsaEncryption
                RSA Public-Key: (2048 bit)
                Modulus:
                    00:e4:4d:75:ee:c7:6d:a8:c4:2b:a8:37:ca:60:9e:
                    cd:44:99:49:2a:96:8f:4e:00:99:38:c9:8f:0b:29:
                    21:4c:8a:e0:1d:ec:1b:91:71:cd:ec:9c:4d:7d:7c:
                    9d:27:48:e1:08:17:3a:bc:a5:fc:36:f5:ce:37:95:
                    28:82:ba:37:b4:98:e7:bd:81:8d:2b:52:71:18:d1:
                    ed:7f:cd:e9:52:31:b9:85:35:4c:46:f8:7c:27:f5:
                    2b:e5:44:2b:b0:23:1f:f6:7b:b1:33:f1:a4:7a:b3:
                    72:1e:e7:87:ff:58:e6:13:56:ab:80:6b:59:f5:a2:
                    e9:46:9c:18:a9:2f:27:6c:a2:73:85:b8:63:b0:2d:
                    bb:58:4b:f1:ff:87:c6:c8:68:f2:f5:a0:33:64:8e:
                    b4:1f:9d:f4:5d:7a:6a:f5:c2:e2:1a:51:50:dc:39:
                    3c:62:7c:61:ea:c5:de:ab:ef:0c:67:80:64:24:59:
                    80:11:a7:4d:90:18:76:7b:23:9b:31:5e:2c:2d:90:
                    8e:56:b9:75:00:57:5d:17:c6:eb:09:59:85:6e:e8:
                    eb:44:0c:ac:33:c4:4f:9e:7c:7a:16:7d:a5:8f:62:
                    ff:d2:6a:4c:92:68:a9:24:63:5b:fc:0a:f6:63:80:
                    6d:f9:83:15:2d:9c:d9:17:6e:07:11:3a:2b:a9:c2:
                    ca:97
                Exponent: 65537 (0x10001)
        X509v3 extensions:
            X509v3 Basic Constraints: 
                CA:FALSE
            X509v3 Key Usage: critical
                Digital Signature, Key Encipherment
            X509v3 Extended Key Usage: critical
                TLS Web Server Authentication, TLS Web Client Authentication
            X509v3 Subject Key Identifier: 
                0F:DE:60:0A:C4:8E:51:CA:E8:B8:8E:97:87:C5:82:B9:C8:8B:CD:1E
            X509v3 Authority Key Identifier: 
                keyid:6D:AE:34:0C:F9:30:83:3C:11:DA:D2:D6:B7:9D:D8:CD:95:9D:86:0C

            X509v3 Issuer Alternative Name: 
                URI:http://ca.mock.neds/, email:certmaster@mock.neds
    Signature Algorithm: sha256WithRSAEncryption
         18:88:2f:d6:78:9f:e7:65:7c:77:99:e9:77:7d:ca:99:cb:ed:
         d6:48:e1:e1:ce:8b:70:7c:fa:10:2c:fb:c7:9b:9a:c1:9f:ab:
         72:67:ee:dd:74:ce:f0:06:70:80:6b:29:b9:fb:0a:b3:cf:47:
         10:ac:94:8a:77:50:60:ff:05:3c:30:73:da:cd:80:a8:79:a8:
         e7:ad:f5:f4:0b:4d:b9:2d:b9:f5:9f:ec:22:75:69:70:3d:f2:
         e7:4c:f4:5d:f0:52:2d:9d:ce:fd:2b:ff:22:7e:f9:c0:f8:ea:
         bb:34:aa:01:af:81:21:f9:fe:26:02:a9:17:6b:4f:df:23:77:
         a7:ca:70:c5:44:64:a0:e2:df:2a:08:ce:0e:91:80:e2:bf:2f:
         52:04:c8:45:8a:80:86:53:b8:e5:4a:55:62:83:39:dd:db:c9:
         33:f9:e8:84:8e:45:36:41:f6:b3:9f:15:3e:5a:98:f2:c8:d9:
         09:c8:d7:3a:67:db:5e:78:af:74:d6:1b:49:3a:2b:57:ee:e9:
         4c:5b:ac:a7:99:88:59:4d:7e:a0:02:57:87:27:2a:3a:45:19:
         f1:d3:a5:bd:24:b0:bb:f3:ce:bf:6f:bc:3f:c0:8b:18:47:1e:
         1d:7e:c9:01:c7:ad:1d:c8:57:0d:5c:73:78:79:d5:30:9c:56:
         f0:be:6b:93:e2:a9:9e:22:3f:11:f5:99:e9:ce:7e:8a:6e:af:
         e3:b1:ac:c0:9e:76:44:61:77:d4:a4:1d:3d:13:0a:e7:a3:97:
         37:46:70:e6:23:57:30:d6:ed:f9:5b:89:cb:f9:cf:21:f0:03:
         19:35:cd:db:1f:0a:ba:55:40:dd:39:23:84:b7:f1:39:93:9b:
         78:af:c5:92:9e:0a:cf:ca:60:e8:38:73:de:73:e3:70:a8:3c:
         8d:c8:49:f2:cb:31:ec:3f:96:a6:f6:ea:a4:e2:6d:bb:e8:5d:
         f7:02:ec:78:06:d5:5e:1f:d5:61:77:3a:99:8f:00:69:15:73:
         6b:b6:94:74:ed:e0:d6:f3:ca:c4:2d:83:27:0a:69:02:8a:cc:
         ee:1c:a8:13:27:dd:2b:ed:ce:70:99:0e:31:1c:2d:7d:40:43:
         98:5f:99:73:38:e0:b9:16:7b:1f:12:c9:4d:fe:d7:bc:e6:69:
         16:e7:e8:1a:69:c1:65:8b:37:87:ad:bd:be:2e:06:16:9a:07:
         a7:1a:a3:3f:7e:18:61:cd:3e:5c:02:3d:79:dc:53:df:0a:f5:
         cc:7c:fa:0f:66:26:a3:c4:e2:a4:04:1c:30:86:88:36:7a:c7:
         b1:b7:1b:d5:c9:37:cb:a3:e7:97:e3:f4:5b:23:b4:46:10:9d:
         46:fd:2f:24:a4:a6:f0:a7
-----BEGIN CERTIFICATE-----
MIIEmjCCAoKgAwIBAgIRAKCfw5doBEymyuOtOa9nEhcwDQYJKoZIhvcNAQELBQAw
QDENMAsGA1UECgwETklJUzEvMC0GA1UEAwwmTkVEUyBNb2NrIFJvb3QgQ2VydGlm
aWNhdGlvbiBBdXRob3JpdHkwHhcNMjExMDE1MTYzMTExWhcNMjYxMDE1MTYzMTEx
WjAXMRUwEwYDVQQDDAxjZWYtc21wLm5lZHMwggEiMA0GCSqGSIb3DQEBAQUAA4IB
DwAwggEKAoIBAQDkTXXux22oxCuoN8pgns1EmUkqlo9OAJk4yY8LKSFMiuAd7BuR
cc3snE19fJ0nSOEIFzq8pfw29c43lSiCuje0mOe9gY0rUnEY0e1/zelSMbmFNUxG
+Hwn9SvlRCuwIx/2e7Ez8aR6s3Ie54f/WOYTVquAa1n1oulGnBipLydsonOFuGOw
LbtYS/H/h8bIaPL1oDNkjrQfnfRdemr1wuIaUVDcOTxifGHqxd6r7wxngGQkWYAR
p02QGHZ7I5sxXiwtkI5WuXUAV10XxusJWYVu6OtEDKwzxE+efHoWfaWPYv/SakyS
aKkkY1v8CvZjgG35gxUtnNkXbgcROiupwsqXAgMBAAGjgbcwgbQwCQYDVR0TBAIw
ADAOBgNVHQ8BAf8EBAMCBaAwIAYDVR0lAQH/BBYwFAYIKwYBBQUHAwEGCCsGAQUF
BwMCMB0GA1UdDgQWBBQP3mAKxI5Ryui4jpeHxYK5yIvNHjAfBgNVHSMEGDAWgBRt
rjQM+TCDPBHa0ta3ndjNlZ2GDDA1BgNVHRIELjAshhRodHRwOi8vY2EubW9jay5u
ZWRzL4EUY2VydG1hc3RlckBtb2NrLm5lZHMwDQYJKoZIhvcNAQELBQADggIBABiI
L9Z4n+dlfHeZ6Xd9ypnL7dZI4eHOi3B8+hAs+8ebmsGfq3Jn7t10zvAGcIBrKbn7
CrPPRxCslIp3UGD/BTwwc9rNgKh5qOet9fQLTbktufWf7CJ1aXA98udM9F3wUi2d
zv0r/yJ++cD46rs0qgGvgSH5/iYCqRdrT98jd6fKcMVEZKDi3yoIzg6RgOK/L1IE
yEWKgIZTuOVKVWKDOd3byTP56ISORTZB9rOfFT5amPLI2QnI1zpn2154r3TWG0k6
K1fu6UxbrKeZiFlNfqACV4cnKjpFGfHTpb0ksLvzzr9vvD/AixhHHh1+yQHHrR3I
Vw1cc3h51TCcVvC+a5PiqZ4iPxH1menOfopur+OxrMCedkRhd9SkHT0TCuejlzdG
cOYjVzDW7flbicv5zyHwAxk1zdsfCrpVQN05I4S38TmTm3ivxZKeCs/KYOg4c95z
43CoPI3ISfLLMew/lqb26qTibbvoXfcC7HgG1V4f1WF3OpmPAGkVc2u2lHTt4Nbz
ysQtgycKaQKKzO4cqBMn3SvtznCZDjEcLX1AQ5hfmXM44LkWex8SyU3+17zmaRbn
6BppwWWLN4etvb4uBhaaB6caoz9+GGHNPlwCPXncU98K9cx8+g9mJqPE4qQEHDCG
iDZ6x7G3G9XJN8uj55fj9FsjtEYQnUb9LySkpvCn
-----END CERTIFICATE-----
