Certificate:
    Data:
        Version: 3 (0x2)
        Serial Number:
            ad:b8:80:8c:01:50:90:c6:81:5b:4c:a2:5c:f6:9c:a1
        Signature Algorithm: sha256WithRSAEncryption
        Issuer: O=NIIS, CN=NEDS Mock Root Certification Authority
        Validity
            Not Before: Oct 15 14:16:34 2021 GMT
            Not After : Oct 15 14:16:34 2026 GMT
        Subject: CN=neds-niis-smp.i.x-road.neds
        Subject Public Key Info:
            Public Key Algorithm: rsaEncryption
                RSA Public-Key: (2048 bit)
                Modulus:
                    00:98:4c:c3:12:ef:52:a4:e2:b0:fc:68:11:bd:1e:
                    b0:d7:39:1e:df:96:d0:b1:b7:bb:ed:e1:0d:36:42:
                    eb:c2:23:ee:89:b2:72:8f:f6:be:f4:e1:14:1e:19:
                    bf:34:a4:ab:b1:1a:e1:01:92:12:8f:f3:f6:72:1a:
                    20:5f:19:4f:b0:16:7c:c8:9b:4c:f7:cd:9d:ab:87:
                    3a:09:e7:e3:01:be:da:95:de:c3:04:e9:54:02:ae:
                    45:30:de:a8:b3:a5:da:4b:cf:e8:5d:3b:45:3b:89:
                    5a:51:47:6f:2e:c1:57:50:cf:3e:13:f2:e9:54:c9:
                    f3:c7:1f:fc:58:49:ac:63:d7:c5:2a:7f:ab:8e:2b:
                    2d:f3:7c:79:03:4a:af:02:83:84:5a:03:1a:1b:59:
                    ef:bc:8d:d6:0f:3c:e0:d3:4a:c9:c3:04:98:d9:16:
                    16:93:13:96:7a:d5:b2:3e:69:68:74:5a:7c:f3:b9:
                    e3:45:72:ca:26:b7:f0:26:3b:29:13:31:a9:9b:d5:
                    ba:f2:6f:f1:3a:93:78:3f:17:ce:8d:f4:cc:98:87:
                    78:e8:ad:be:1c:d2:7b:ab:30:49:47:74:6b:e2:e7:
                    ca:3f:5c:0c:f9:88:e9:52:45:6c:37:f0:79:7e:17:
                    4d:13:9c:7a:0d:dc:f9:3f:86:18:c1:ed:70:92:15:
                    1a:5b
                Exponent: 65537 (0x10001)
        X509v3 extensions:
            X509v3 Basic Constraints: 
                CA:FALSE
            X509v3 Key Usage: critical
                Digital Signature, Key Encipherment
            X509v3 Extended Key Usage: critical
                TLS Web Server Authentication, TLS Web Client Authentication
            X509v3 Subject Key Identifier: 
                45:1E:CD:DD:02:41:31:81:A4:3E:E5:95:B8:1E:8E:EE:F7:68:A4:EC
            X509v3 Authority Key Identifier: 
                keyid:6D:AE:34:0C:F9:30:83:3C:11:DA:D2:D6:B7:9D:D8:CD:95:9D:86:0C

            X509v3 Issuer Alternative Name: 
                URI:http://ca.mock.neds/, email:certmaster@mock.neds
    Signature Algorithm: sha256WithRSAEncryption
         96:37:62:4f:93:5f:bf:28:6d:4f:a3:93:6a:0e:d3:68:81:33:
         f9:54:c1:7b:44:f7:45:61:a7:9a:d9:f5:6c:69:31:63:a9:0f:
         ed:c2:c0:2c:a1:50:ea:80:f5:53:bb:a9:7f:26:e1:3d:f9:3c:
         9e:b7:ae:24:5a:c5:df:1c:3d:7a:3a:8d:d5:65:51:6f:15:ad:
         e8:37:4a:50:56:95:6b:74:d3:22:54:51:59:a9:b9:fe:ee:f8:
         c8:03:d4:70:7d:c4:97:27:5a:91:88:db:db:95:06:5a:32:92:
         0e:f5:7f:23:90:be:f8:30:5f:5a:22:77:ce:44:1e:49:c4:a2:
         18:d2:fb:53:f1:08:41:18:c7:54:b4:d6:a0:b8:33:91:21:cd:
         70:d2:09:95:d2:a7:ef:3f:a1:45:27:4a:fd:c2:da:92:02:31:
         c3:30:a3:3a:b7:5a:ea:4c:a7:83:97:2f:cc:c3:1d:ff:86:5b:
         48:c1:eb:b9:13:7b:fa:49:38:50:6d:87:7a:f6:e4:5d:15:1e:
         41:a3:ba:57:e8:b0:fa:8f:a5:5e:f7:8e:fe:a2:fe:3c:e6:22:
         63:04:90:38:b6:80:fe:67:52:1b:40:1b:71:d9:45:80:e8:cb:
         fe:b3:4d:4c:39:6f:20:a8:d8:2c:bb:7c:cd:56:7a:4a:b2:34:
         c8:44:75:be:66:ae:0c:fa:9b:02:89:12:94:2e:ee:35:0c:78:
         f6:63:2e:e6:48:d1:68:c3:a2:78:d8:02:90:a1:91:83:db:78:
         cd:13:8e:ea:3d:91:5a:23:12:ea:3a:77:92:7d:c1:13:c0:8f:
         1a:e7:43:9a:af:9e:97:08:81:1a:29:38:4f:9a:d2:3d:45:a8:
         ea:4b:45:f9:16:51:9e:40:cf:a6:8c:4c:b5:54:93:59:41:40:
         bf:b1:9f:af:b6:db:3f:2d:15:70:2c:37:b4:cf:df:25:44:2c:
         c6:49:81:7b:a0:3c:bd:87:3a:0a:43:20:a2:52:61:b6:1a:10:
         36:fa:f1:8c:b8:68:ed:a0:cd:20:25:99:a1:0d:a5:92:2c:69:
         b4:9e:cc:54:25:a1:da:4b:32:40:d4:85:15:3b:ba:ef:50:9a:
         37:91:51:a2:e3:a4:f7:94:2a:9a:15:eb:26:fa:c7:9d:7c:b8:
         31:a5:2f:64:3c:f3:f9:bc:65:c7:86:ab:f6:85:62:d7:dd:bd:
         ba:62:60:d9:74:fe:59:8d:f7:26:92:e8:e5:d6:ec:2d:af:fd:
         e4:19:c3:74:e0:7c:5d:32:30:7c:32:c1:6b:60:74:1d:51:b0:
         22:fc:ff:a9:c0:38:e1:e9:53:01:4c:16:42:2b:fa:9e:76:97:
         01:f2:82:e8:3d:06:be:bc
-----BEGIN CERTIFICATE-----
MIIEqTCCApGgAwIBAgIRAK24gIwBUJDGgVtMolz2nKEwDQYJKoZIhvcNAQELBQAw
QDENMAsGA1UECgwETklJUzEvMC0GA1UEAwwmTkVEUyBNb2NrIFJvb3QgQ2VydGlm
aWNhdGlvbiBBdXRob3JpdHkwHhcNMjExMDE1MTQxNjM0WhcNMjYxMDE1MTQxNjM0
WjAmMSQwIgYDVQQDDBtuZWRzLW5paXMtc21wLmkueC1yb2FkLm5lZHMwggEiMA0G
CSqGSIb3DQEBAQUAA4IBDwAwggEKAoIBAQCYTMMS71Kk4rD8aBG9HrDXOR7fltCx
t7vt4Q02QuvCI+6JsnKP9r704RQeGb80pKuxGuEBkhKP8/ZyGiBfGU+wFnzIm0z3
zZ2rhzoJ5+MBvtqV3sME6VQCrkUw3qizpdpLz+hdO0U7iVpRR28uwVdQzz4T8ulU
yfPHH/xYSaxj18Uqf6uOKy3zfHkDSq8Cg4RaAxobWe+8jdYPPODTSsnDBJjZFhaT
E5Z61bI+aWh0WnzzueNFcsomt/AmOykTMamb1bryb/E6k3g/F86N9MyYh3jorb4c
0nurMElHdGvi58o/XAz5iOlSRWw38Hl+F00TnHoN3Pk/hhjB7XCSFRpbAgMBAAGj
gbcwgbQwCQYDVR0TBAIwADAOBgNVHQ8BAf8EBAMCBaAwIAYDVR0lAQH/BBYwFAYI
KwYBBQUHAwEGCCsGAQUFBwMCMB0GA1UdDgQWBBRFHs3dAkExgaQ+5ZW4Ho7u92ik
7DAfBgNVHSMEGDAWgBRtrjQM+TCDPBHa0ta3ndjNlZ2GDDA1BgNVHRIELjAshhRo
dHRwOi8vY2EubW9jay5uZWRzL4EUY2VydG1hc3RlckBtb2NrLm5lZHMwDQYJKoZI
hvcNAQELBQADggIBAJY3Yk+TX78obU+jk2oO02iBM/lUwXtE90Vhp5rZ9WxpMWOp
D+3CwCyhUOqA9VO7qX8m4T35PJ63riRaxd8cPXo6jdVlUW8Vreg3SlBWlWt00yJU
UVmpuf7u+MgD1HB9xJcnWpGI29uVBloykg71fyOQvvgwX1oid85EHknEohjS+1Px
CEEYx1S01qC4M5EhzXDSCZXSp+8/oUUnSv3C2pICMcMwozq3WupMp4OXL8zDHf+G
W0jB67kTe/pJOFBth3r25F0VHkGjulfosPqPpV73jv6i/jzmImMEkDi2gP5nUhtA
G3HZRYDoy/6zTUw5byCo2Cy7fM1WekqyNMhEdb5mrgz6mwKJEpQu7jUMePZjLuZI
0WjDonjYApChkYPbeM0Tjuo9kVojEuo6d5J9wRPAjxrnQ5qvnpcIgRopOE+a0j1F
qOpLRfkWUZ5Az6aMTLVUk1lBQL+xn6+22z8tFXAsN7TP3yVELMZJgXugPL2HOgpD
IKJSYbYaEDb68Yy4aO2gzSAlmaENpZIsabSezFQlodpLMkDUhRU7uu9QmjeRUaLj
pPeUKpoV6yb6x518uDGlL2Q88/m8ZceGq/aFYtfdvbpiYNl0/lmN9yaS6OXW7C2v
/eQZw3TgfF0yMHwywWtgdB1RsCL8/6nAOOHpUwFMFkIr+p52lwHygug9Br68
-----END CERTIFICATE-----
