Certificate:
    Data:
        Version: 3 (0x2)
        Serial Number:
            a2:f6:e5:0c:46:55:fc:66:8c:fa:b5:5b:9e:8d:66:45
        Signature Algorithm: sha256WithRSAEncryption
        Issuer: O=NIIS, CN=NEDS Mock Root Certification Authority
        Validity
            Not Before: Oct 15 14:16:14 2021 GMT
            Not After : Oct 15 14:16:14 2026 GMT
        Subject: CN=neds-niis-smp.i.x-road.neds_tls
        Subject Public Key Info:
            Public Key Algorithm: rsaEncryption
                RSA Public-Key: (2048 bit)
                Modulus:
                    00:ba:05:6d:d4:f2:aa:20:88:50:99:2f:37:9f:32:
                    54:65:88:cf:da:9b:c5:ac:78:14:ef:a6:bd:f7:1e:
                    9f:ef:29:13:42:91:5d:5d:aa:fe:11:17:28:f9:db:
                    2a:f4:92:41:e0:f6:a9:7b:b9:17:3b:9f:55:b2:90:
                    8b:55:bc:28:38:af:2e:db:02:f0:e7:ce:5c:6c:9d:
                    4b:52:b6:bc:06:50:bb:82:a7:98:e5:3a:ac:04:3b:
                    e5:ec:3e:b0:95:74:f3:99:09:2d:ef:da:c8:b9:b0:
                    3f:b1:e5:99:83:63:c6:de:1f:28:47:bb:13:5b:c1:
                    15:73:da:09:2c:f2:e5:53:38:e8:3c:05:72:8d:48:
                    c2:cd:63:d9:10:67:6f:0b:9a:bb:4d:77:7f:06:77:
                    dc:e4:df:63:6a:c7:f4:92:9b:8d:38:09:1a:f1:f8:
                    b7:4a:63:18:18:1b:b7:2a:97:37:c5:ed:9d:68:6b:
                    3b:86:7f:56:c2:c0:c0:97:c4:9f:15:43:0c:5a:ac:
                    62:f4:32:e3:75:55:19:ad:dd:2a:8e:f5:eb:79:b6:
                    f1:04:dc:86:96:7f:d9:57:a7:3a:56:05:c2:4f:ef:
                    35:28:1f:e0:26:9b:4b:21:d0:b6:44:93:99:54:04:
                    7c:74:63:e9:61:a6:85:9c:5d:32:21:61:c1:db:55:
                    bd:b5
                Exponent: 65537 (0x10001)
        X509v3 extensions:
            X509v3 Basic Constraints: 
                CA:FALSE
            X509v3 Key Usage: critical
                Digital Signature, Key Encipherment
            X509v3 Extended Key Usage: critical
                TLS Web Server Authentication, TLS Web Client Authentication
            X509v3 Subject Key Identifier: 
                E0:8D:C2:FC:3F:AA:A9:D4:0B:7A:84:43:1B:31:BD:70:A7:8C:AF:72
            X509v3 Authority Key Identifier: 
                keyid:6D:AE:34:0C:F9:30:83:3C:11:DA:D2:D6:B7:9D:D8:CD:95:9D:86:0C

            X509v3 Issuer Alternative Name: 
                URI:http://ca.mock.neds/, email:certmaster@mock.neds
    Signature Algorithm: sha256WithRSAEncryption
         3d:db:81:2d:45:a5:3e:0c:65:7d:91:95:69:8c:02:e5:f1:88:
         4c:99:8b:23:58:8e:b0:4c:05:10:e1:54:89:a3:95:12:f2:57:
         51:4e:c3:e5:46:e1:fd:3d:be:16:dc:61:f7:41:90:9b:f4:9d:
         a4:ed:b1:fc:69:ff:5f:ed:26:6a:96:4f:a3:9e:81:75:c4:67:
         24:5e:dd:d3:fb:3b:c5:84:ab:85:91:e8:70:7b:65:84:3e:f0:
         1a:ce:cd:d8:a9:a3:25:42:1f:b5:05:86:e2:cc:58:c9:24:8e:
         cd:a1:ca:e6:14:29:e8:f8:a2:11:85:f3:4c:9b:ff:35:63:f9:
         2f:71:92:ed:8f:c7:31:d7:05:a8:fc:8c:10:b0:c0:9d:9c:8f:
         bf:44:22:10:37:c4:2b:89:f2:3c:74:8e:8e:e9:26:55:b6:91:
         8d:dc:16:01:64:a9:8f:c8:3b:7a:13:9a:90:4f:81:c4:03:5f:
         2e:a1:01:2b:f9:1e:d7:9b:8a:ed:77:17:b1:3c:21:3b:1d:fc:
         56:6a:77:00:73:94:04:c7:47:d6:bc:ed:23:6c:b8:f4:f9:d3:
         82:b6:e0:19:a7:71:10:1c:48:af:2e:71:17:c8:5a:d2:a0:9c:
         c2:31:9d:8e:b1:66:d0:e9:5e:aa:63:7c:79:ab:8f:69:fe:34:
         81:68:93:32:dc:59:77:f9:db:26:65:f3:0d:eb:ec:3e:64:d3:
         38:2d:69:4d:27:70:a8:15:7a:37:24:86:1b:d8:d1:7a:c9:5e:
         79:b1:88:fc:21:f7:ba:10:5f:47:52:a8:53:aa:77:78:7a:db:
         d1:d1:9f:38:01:1d:a3:f2:26:78:d6:25:ec:0d:d9:57:67:aa:
         97:8a:60:d3:e1:f4:d9:8f:77:9e:99:2f:54:52:3b:a0:27:86:
         56:c2:e0:35:5f:4f:89:e5:ed:30:6f:c7:0b:7d:8d:da:85:b3:
         7b:b1:be:08:2d:6a:a6:6e:29:ef:91:17:fb:b5:0d:ac:f6:6b:
         9a:8a:78:9c:ec:7f:f9:c9:eb:91:09:3c:db:f1:d9:3c:56:84:
         41:32:1c:42:fe:94:63:73:df:22:a0:7c:63:e2:58:bf:3c:2f:
         67:95:04:45:7f:e4:ed:41:36:8e:8b:5b:70:b3:dd:84:6c:a6:
         4d:77:b4:e9:30:ce:a8:d7:17:6c:e3:ef:25:5e:2e:1d:0b:fe:
         1d:92:72:52:e5:72:e0:78:89:f6:6d:18:81:e6:cd:c5:53:8d:
         90:ac:7b:61:b0:a1:98:d9:1f:c7:dc:ae:36:7c:9f:b2:37:e5:
         b0:4a:ba:d9:9c:a4:75:e3:e4:8b:c5:a6:ae:f6:ec:cb:54:4e:
         14:01:6e:c6:c1:be:16:2b
-----BEGIN CERTIFICATE-----
MIIErTCCApWgAwIBAgIRAKL25QxGVfxmjPq1W56NZkUwDQYJKoZIhvcNAQELBQAw
QDENMAsGA1UECgwETklJUzEvMC0GA1UEAwwmTkVEUyBNb2NrIFJvb3QgQ2VydGlm
aWNhdGlvbiBBdXRob3JpdHkwHhcNMjExMDE1MTQxNjE0WhcNMjYxMDE1MTQxNjE0
WjAqMSgwJgYDVQQDDB9uZWRzLW5paXMtc21wLmkueC1yb2FkLm5lZHNfdGxzMIIB
IjANBgkqhkiG9w0BAQEFAAOCAQ8AMIIBCgKCAQEAugVt1PKqIIhQmS83nzJUZYjP
2pvFrHgU76a99x6f7ykTQpFdXar+ERco+dsq9JJB4Pape7kXO59VspCLVbwoOK8u
2wLw585cbJ1LUra8BlC7gqeY5TqsBDvl7D6wlXTzmQkt79rIubA/seWZg2PG3h8o
R7sTW8EVc9oJLPLlUzjoPAVyjUjCzWPZEGdvC5q7TXd/Bnfc5N9jasf0kpuNOAka
8fi3SmMYGBu3Kpc3xe2daGs7hn9WwsDAl8SfFUMMWqxi9DLjdVUZrd0qjvXrebbx
BNyGln/ZV6c6VgXCT+81KB/gJptLIdC2RJOZVAR8dGPpYaaFnF0yIWHB21W9tQID
AQABo4G3MIG0MAkGA1UdEwQCMAAwDgYDVR0PAQH/BAQDAgWgMCAGA1UdJQEB/wQW
MBQGCCsGAQUFBwMBBggrBgEFBQcDAjAdBgNVHQ4EFgQU4I3C/D+qqdQLeoRDGzG9
cKeMr3IwHwYDVR0jBBgwFoAUba40DPkwgzwR2tLWt53YzZWdhgwwNQYDVR0SBC4w
LIYUaHR0cDovL2NhLm1vY2submVkcy+BFGNlcnRtYXN0ZXJAbW9jay5uZWRzMA0G
CSqGSIb3DQEBCwUAA4ICAQA924EtRaU+DGV9kZVpjALl8YhMmYsjWI6wTAUQ4VSJ
o5US8ldRTsPlRuH9Pb4W3GH3QZCb9J2k7bH8af9f7SZqlk+jnoF1xGckXt3T+zvF
hKuFkehwe2WEPvAazs3YqaMlQh+1BYbizFjJJI7NocrmFCno+KIRhfNMm/81Y/kv
cZLtj8cx1wWo/IwQsMCdnI+/RCIQN8QrifI8dI6O6SZVtpGN3BYBZKmPyDt6E5qQ
T4HEA18uoQEr+R7Xm4rtdxexPCE7HfxWancAc5QEx0fWvO0jbLj0+dOCtuAZp3EQ
HEivLnEXyFrSoJzCMZ2OsWbQ6V6qY3x5q49p/jSBaJMy3Fl3+dsmZfMN6+w+ZNM4
LWlNJ3CoFXo3JIYb2NF6yV55sYj8Ife6EF9HUqhTqnd4etvR0Z84AR2j8iZ41iXs
DdlXZ6qXimDT4fTZj3eemS9UUjugJ4ZWwuA1X0+J5e0wb8cLfY3ahbN7sb4ILWqm
binvkRf7tQ2s9muainic7H/5yeuRCTzb8dk8VoRBMhxC/pRjc98ioHxj4li/PC9n
lQRFf+TtQTaOi1tws92EbKZNd7TpMM6o1xds4+8lXi4dC/4dknJS5XLgeIn2bRiB
5s3FU42QrHthsKGY2R/H3K42fJ+yN+WwSrrZnKR14+SLxaau9uzLVE4UAW7Gwb4W
Kw==
-----END CERTIFICATE-----
