Certificate:
    Data:
        Version: 3 (0x2)
        Serial Number:
            a7:13:5a:48:4b:f0:96:de:69:60:fa:df:a4:56:ae:d0
        Signature Algorithm: sha256WithRSAEncryption
        Issuer: O=NIIS, CN=NEDS Mock Root Certification Authority
        Validity
            Not Before: Oct 15 13:54:08 2021 GMT
            Not After : Oct 15 13:54:08 2026 GMT
        Subject: CN=neds-cef-smp.i.x-road.neds_tls
        Subject Public Key Info:
            Public Key Algorithm: rsaEncryption
                RSA Public-Key: (2048 bit)
                Modulus:
                    00:d8:ef:0e:74:1e:3b:e9:12:69:ac:29:6a:f1:e4:
                    72:13:6a:27:80:a9:b4:ec:c7:1d:7f:d2:53:be:71:
                    fd:32:f3:8b:13:f3:73:25:00:93:69:1b:4b:67:78:
                    c6:91:bf:03:90:e9:dc:fb:9d:a1:05:33:ff:8f:3b:
                    99:09:58:f9:77:ba:e4:cd:7a:50:31:39:e2:26:15:
                    d6:14:a6:26:61:ea:c4:75:38:fe:54:eb:ed:85:dc:
                    10:c4:13:78:15:6b:ed:a0:f4:5c:5c:1f:98:eb:bd:
                    d7:3d:b0:aa:43:17:9e:d2:a0:e0:54:27:d4:9f:7d:
                    0b:fe:1c:c7:a2:d3:62:ce:c2:e8:2b:08:1a:9a:90:
                    9b:16:4d:8a:95:a8:93:5d:0c:72:06:57:13:37:50:
                    7f:d0:6b:67:46:c1:df:98:65:e5:b9:e7:6b:d5:9b:
                    ef:dd:cf:4e:8d:e6:fc:a5:92:9a:e2:19:21:01:16:
                    89:8d:b8:90:5b:c6:79:4c:b7:71:ef:4f:9d:43:43:
                    ab:03:af:d6:a9:5d:88:c2:fe:d8:ee:0f:84:a1:92:
                    20:32:c6:d8:e8:c2:0e:76:9c:15:16:4f:8c:30:0f:
                    c6:67:2e:46:60:7a:ca:9d:34:99:70:cc:aa:16:19:
                    12:46:c5:cf:b7:1c:f3:af:8b:58:12:3b:de:93:54:
                    24:35
                Exponent: 65537 (0x10001)
        X509v3 extensions:
            X509v3 Basic Constraints: 
                CA:FALSE
            X509v3 Key Usage: critical
                Digital Signature, Key Encipherment
            X509v3 Extended Key Usage: critical
                TLS Web Server Authentication, TLS Web Client Authentication
            X509v3 Subject Key Identifier: 
                D6:9A:92:1A:EE:B5:F8:E9:49:78:C8:9F:58:CC:1D:B5:50:C8:B9:22
            X509v3 Authority Key Identifier: 
                keyid:6D:AE:34:0C:F9:30:83:3C:11:DA:D2:D6:B7:9D:D8:CD:95:9D:86:0C

            X509v3 Issuer Alternative Name: 
                URI:http://ca.mock.neds/, email:certmaster@mock.neds
    Signature Algorithm: sha256WithRSAEncryption
         33:c2:e9:b8:59:61:ef:a9:71:db:67:a6:59:83:c5:11:1d:4f:
         5e:96:9b:bc:ac:bb:f5:00:73:81:6b:bd:e8:52:78:7b:a4:59:
         d6:04:bf:a9:be:4f:23:fe:11:da:4c:43:c6:a8:69:4f:9c:79:
         a4:90:c9:6c:0c:a8:3e:e1:0b:fb:94:e0:2c:1c:8f:3f:18:5c:
         85:a4:7d:79:13:9d:4a:02:c2:52:36:6c:49:09:4b:76:fd:91:
         5d:35:b1:75:66:f0:a1:f3:37:b2:ce:ff:59:c7:fc:83:00:0d:
         c2:1a:34:30:89:63:cf:49:a6:a9:55:7a:95:fe:f8:43:4d:ab:
         99:3d:10:c2:21:a2:d1:93:8c:c9:e6:c4:e3:c9:47:2c:76:1c:
         54:bf:2e:24:14:c9:12:bd:28:87:a8:1b:4d:d0:45:f3:ee:4d:
         11:bc:f0:76:4e:85:62:25:fe:d3:84:69:34:ff:2c:c3:5b:f8:
         d5:44:5f:38:bd:1f:5d:06:c0:66:52:6b:9d:cc:3d:09:e6:fe:
         0d:31:b3:06:5b:71:9b:13:ab:64:76:1d:d2:bb:a7:30:42:80:
         ba:a7:9f:ae:36:32:4f:17:a4:40:6a:2f:21:8c:bf:24:ed:86:
         c2:68:c6:e1:7f:c9:6d:23:da:4e:99:4e:36:c2:52:86:04:83:
         c3:a9:a8:c2:27:02:6f:10:c6:26:81:1c:9a:5c:8b:8b:80:7b:
         98:ca:df:3e:6c:fe:d9:0f:30:76:46:22:5c:cc:2e:d5:b6:e0:
         09:5a:b1:b8:c5:92:f0:f9:82:43:63:1c:a5:b9:3b:06:a8:b8:
         78:91:6a:e2:8d:90:fb:46:9d:19:b0:b1:b6:49:d2:3c:9a:90:
         87:e8:47:5c:69:65:11:0c:49:f5:0b:d6:9b:1e:69:e3:a4:60:
         38:b2:6f:99:79:8e:0e:4c:18:44:ef:51:e9:d0:ef:64:e1:91:
         bd:78:d9:df:de:e7:7c:61:27:3d:7c:4e:c6:46:81:f7:d4:df:
         d1:2f:87:96:fe:a7:84:6c:88:bf:83:56:27:ce:e5:8b:ea:4f:
         26:92:71:cb:2d:be:d2:8a:5f:82:b1:05:42:4d:b1:2e:0f:92:
         2d:5a:83:69:c2:f7:81:b3:0c:3a:fa:5e:68:34:45:f0:22:de:
         7b:34:4f:e6:fc:f2:02:77:1d:53:90:04:bd:1c:14:17:2d:89:
         0c:c3:22:da:9d:73:81:6f:63:9c:1b:df:a4:f7:ac:1c:6d:d6:
         8d:27:0d:4e:67:2d:92:e6:d8:da:7b:48:ca:24:b6:ff:49:95:
         f7:2e:03:76:af:81:5b:fe:9f:da:77:a3:7c:90:5b:7b:d7:db:
         f4:3d:b2:9b:88:90:3f:00
-----BEGIN CERTIFICATE-----
MIIErDCCApSgAwIBAgIRAKcTWkhL8JbeaWD636RWrtAwDQYJKoZIhvcNAQELBQAw
QDENMAsGA1UECgwETklJUzEvMC0GA1UEAwwmTkVEUyBNb2NrIFJvb3QgQ2VydGlm
aWNhdGlvbiBBdXRob3JpdHkwHhcNMjExMDE1MTM1NDA4WhcNMjYxMDE1MTM1NDA4
WjApMScwJQYDVQQDDB5uZWRzLWNlZi1zbXAuaS54LXJvYWQubmVkc190bHMwggEi
MA0GCSqGSIb3DQEBAQUAA4IBDwAwggEKAoIBAQDY7w50HjvpEmmsKWrx5HITaieA
qbTsxx1/0lO+cf0y84sT83MlAJNpG0tneMaRvwOQ6dz7naEFM/+PO5kJWPl3uuTN
elAxOeImFdYUpiZh6sR1OP5U6+2F3BDEE3gVa+2g9FxcH5jrvdc9sKpDF57SoOBU
J9SffQv+HMei02LOwugrCBqakJsWTYqVqJNdDHIGVxM3UH/Qa2dGwd+YZeW552vV
m+/dz06N5vylkpriGSEBFomNuJBbxnlMt3HvT51DQ6sDr9apXYjC/tjuD4ShkiAy
xtjowg52nBUWT4wwD8ZnLkZgesqdNJlwzKoWGRJGxc+3HPOvi1gSO96TVCQ1AgMB
AAGjgbcwgbQwCQYDVR0TBAIwADAOBgNVHQ8BAf8EBAMCBaAwIAYDVR0lAQH/BBYw
FAYIKwYBBQUHAwEGCCsGAQUFBwMCMB0GA1UdDgQWBBTWmpIa7rX46Ul4yJ9YzB21
UMi5IjAfBgNVHSMEGDAWgBRtrjQM+TCDPBHa0ta3ndjNlZ2GDDA1BgNVHRIELjAs
hhRodHRwOi8vY2EubW9jay5uZWRzL4EUY2VydG1hc3RlckBtb2NrLm5lZHMwDQYJ
KoZIhvcNAQELBQADggIBADPC6bhZYe+pcdtnplmDxREdT16Wm7ysu/UAc4FrvehS
eHukWdYEv6m+TyP+EdpMQ8aoaU+ceaSQyWwMqD7hC/uU4Cwcjz8YXIWkfXkTnUoC
wlI2bEkJS3b9kV01sXVm8KHzN7LO/1nH/IMADcIaNDCJY89JpqlVepX++ENNq5k9
EMIhotGTjMnmxOPJRyx2HFS/LiQUyRK9KIeoG03QRfPuTRG88HZOhWIl/tOEaTT/
LMNb+NVEXzi9H10GwGZSa53MPQnm/g0xswZbcZsTq2R2HdK7pzBCgLqnn642Mk8X
pEBqLyGMvyTthsJoxuF/yW0j2k6ZTjbCUoYEg8OpqMInAm8QxiaBHJpci4uAe5jK
3z5s/tkPMHZGIlzMLtW24AlasbjFkvD5gkNjHKW5OwaouHiRauKNkPtGnRmwsbZJ
0jyakIfoR1xpZREMSfUL1pseaeOkYDiyb5l5jg5MGETvUenQ72Thkb142d/e53xh
Jz18TsZGgffU39Evh5b+p4RsiL+DVifO5YvqTyaSccstvtKKX4KxBUJNsS4Pki1a
g2nC94GzDDr6Xmg0RfAi3ns0T+b88gJ3HVOQBL0cFBctiQzDItqdc4FvY5wb36T3
rBxt1o0nDU5nLZLm2Np7SMoktv9JlfcuA3avgVv+n9p3o3yQW3vX2/Q9spuIkD8A
-----END CERTIFICATE-----
