Certificate:
    Data:
        Version: 3 (0x2)
        Serial Number:
            f6:29:4c:a5:86:dc:3d:2b:5f:7e:4a:f9:b4:3e:4f:59
        Signature Algorithm: sha256WithRSAEncryption
        Issuer: O=NIIS, CN=NEDS Mock Root Certification Authority
        Validity
            Not Before: Sep 17 11:29:25 2021 GMT
            Not After : Sep 17 11:29:25 2026 GMT
        Subject: CN=neds-cef-ap.neds
        Subject Public Key Info:
            Public Key Algorithm: rsaEncryption
                RSA Public-Key: (2048 bit)
                Modulus:
                    00:fd:35:fa:7a:50:9c:a7:70:7b:54:1e:1d:7c:d6:
                    97:0b:a3:8a:ce:5e:f0:46:15:23:2b:5b:1e:78:fe:
                    94:b6:67:85:1b:a1:a8:54:4f:86:ae:cd:94:b5:46:
                    e1:11:19:74:83:a6:cc:80:c4:ad:c7:d7:3d:e4:75:
                    32:21:a7:4f:c4:84:dd:50:e3:d1:9f:48:95:ac:77:
                    92:f9:4e:20:89:57:9c:c4:40:e9:89:0f:e4:d6:3d:
                    75:a9:6c:e0:16:34:7e:d3:11:77:0e:8d:0b:9b:37:
                    81:d8:e3:db:14:24:52:92:6c:bc:b5:2d:e1:19:91:
                    73:a7:ee:14:68:5e:92:ae:82:45:1d:8a:90:df:ec:
                    98:65:3f:29:f8:1f:53:d5:ef:30:45:1f:01:99:c1:
                    2a:1b:2e:cf:e8:7d:6d:57:dc:4e:f0:b8:0e:c7:2c:
                    b9:c5:47:a1:5f:9f:5a:52:10:ad:10:79:0f:61:b7:
                    49:eb:3a:1a:e0:32:5e:8b:d3:7f:eb:83:dd:46:c7:
                    39:00:75:bf:fe:c7:19:58:f4:00:78:92:1d:ad:1b:
                    2d:36:79:3f:cd:66:04:ee:ff:e3:a1:d6:d1:25:8a:
                    26:d4:1b:11:2e:aa:11:73:1f:2f:7a:c8:d4:a6:bc:
                    f5:c5:11:7c:4c:32:9f:64:1d:c8:87:87:1a:ff:46:
                    32:5d
                Exponent: 65537 (0x10001)
        X509v3 extensions:
            X509v3 Basic Constraints: 
                CA:FALSE
            X509v3 Key Usage: critical
                Digital Signature, Key Encipherment
            X509v3 Extended Key Usage: critical
                TLS Web Server Authentication, TLS Web Client Authentication
            X509v3 Subject Key Identifier: 
                E3:09:A2:F2:2E:85:C0:A0:24:A0:E9:C3:34:0E:0A:BB:9C:CF:95:C8
            X509v3 Authority Key Identifier: 
                keyid:6D:AE:34:0C:F9:30:83:3C:11:DA:D2:D6:B7:9D:D8:CD:95:9D:86:0C

            X509v3 Issuer Alternative Name: 
                URI:http://ca.mock.neds/, email:certmaster@mock.neds
    Signature Algorithm: sha256WithRSAEncryption
         97:eb:a8:1d:8b:b7:e8:86:99:f2:d4:ef:cd:18:f5:69:19:ae:
         3e:ed:84:b9:3b:7c:a4:10:4a:f5:62:db:a9:88:af:1b:be:1c:
         67:e8:1c:37:e0:f3:8f:94:45:6c:47:44:a9:16:ae:93:6d:36:
         e4:38:6e:fd:35:54:d8:e8:14:b0:75:cf:58:6f:83:99:41:5b:
         4c:68:ab:63:fe:aa:04:7c:24:5b:96:29:26:fc:7c:f2:8a:c8:
         9a:4c:72:b4:08:e8:92:93:92:58:1a:e3:f5:50:ae:7c:46:fe:
         a8:7c:77:7a:e9:06:bd:f8:13:85:da:2c:3d:2d:e5:12:59:23:
         bd:f3:41:4a:7d:64:18:c4:62:61:63:b7:97:7e:68:4e:97:c7:
         03:6e:c5:18:09:6d:72:28:8c:1a:04:77:9f:18:eb:91:e5:e0:
         14:a5:d5:4d:dc:24:1a:64:44:98:92:d9:d7:dc:b6:19:8c:f3:
         3e:c3:ea:1d:1c:dd:8c:0c:6b:7e:d6:b1:47:69:06:4d:f6:b0:
         0c:79:6e:2a:0c:ab:c2:b5:46:d3:91:84:8b:fe:35:a3:60:44:
         21:52:6f:fc:b0:b5:66:39:0d:7e:00:b7:68:20:fe:1b:37:3f:
         97:93:13:46:ce:85:38:b2:22:9f:e9:a5:ed:f6:97:2f:ea:79:
         62:bb:e6:1d:fa:7d:59:3a:23:35:5c:dc:31:eb:43:27:b3:03:
         d0:a3:1d:61:e8:c0:db:12:cf:e3:0a:d3:32:8e:30:40:fc:08:
         0f:70:1e:e6:82:c0:da:91:96:e1:db:a2:98:64:a5:6e:b8:30:
         bf:2a:70:92:5c:cf:44:f2:36:64:28:20:49:db:89:8f:3a:a7:
         dd:99:11:1e:97:d9:a8:53:62:a9:07:48:46:b3:e1:ed:30:24:
         11:e3:da:d2:75:71:78:43:dc:99:19:15:5a:2e:70:12:1c:fd:
         1b:a1:8b:42:2d:1a:c5:db:80:fb:a9:7d:12:1a:bb:79:4f:1c:
         49:50:de:54:8e:34:86:90:f2:e7:e0:1a:53:6c:14:92:c5:dc:
         ff:f4:f1:6c:aa:37:14:fe:9b:89:bf:99:b0:f7:f6:e2:33:c4:
         05:a5:d4:2e:b9:7c:62:3a:d7:b2:36:a6:c9:fd:8f:1d:eb:17:
         66:23:ae:76:2c:a1:88:b0:c3:68:7e:d4:e0:6f:7c:a0:99:e4:
         cb:c5:89:a7:6d:ef:68:57:2b:51:92:f9:a6:76:2c:68:dd:11:
         62:eb:81:8b:b3:cd:31:4e:90:12:a0:c0:ee:b9:1e:eb:24:c9:
         eb:25:e0:56:18:99:3e:89:df:55:9c:74:27:45:ee:ee:e3:25:
         94:88:20:d8:48:a1:2d:69
-----BEGIN CERTIFICATE-----
MIIEnjCCAoagAwIBAgIRAPYpTKWG3D0rX35K+bQ+T1kwDQYJKoZIhvcNAQELBQAw
QDENMAsGA1UECgwETklJUzEvMC0GA1UEAwwmTkVEUyBNb2NrIFJvb3QgQ2VydGlm
aWNhdGlvbiBBdXRob3JpdHkwHhcNMjEwOTE3MTEyOTI1WhcNMjYwOTE3MTEyOTI1
WjAbMRkwFwYDVQQDDBBuZWRzLWNlZi1hcC5uZWRzMIIBIjANBgkqhkiG9w0BAQEF
AAOCAQ8AMIIBCgKCAQEA/TX6elCcp3B7VB4dfNaXC6OKzl7wRhUjK1seeP6UtmeF
G6GoVE+Grs2UtUbhERl0g6bMgMStx9c95HUyIadPxITdUOPRn0iVrHeS+U4giVec
xEDpiQ/k1j11qWzgFjR+0xF3Do0LmzeB2OPbFCRSkmy8tS3hGZFzp+4UaF6SroJF
HYqQ3+yYZT8p+B9T1e8wRR8BmcEqGy7P6H1tV9xO8LgOxyy5xUehX59aUhCtEHkP
YbdJ6zoa4DJei9N/64PdRsc5AHW//scZWPQAeJIdrRstNnk/zWYE7v/jodbRJYom
1BsRLqoRcx8vesjUprz1xRF8TDKfZB3Ih4ca/0YyXQIDAQABo4G3MIG0MAkGA1Ud
EwQCMAAwDgYDVR0PAQH/BAQDAgWgMCAGA1UdJQEB/wQWMBQGCCsGAQUFBwMBBggr
BgEFBQcDAjAdBgNVHQ4EFgQU4wmi8i6FwKAkoOnDNA4Ku5zPlcgwHwYDVR0jBBgw
FoAUba40DPkwgzwR2tLWt53YzZWdhgwwNQYDVR0SBC4wLIYUaHR0cDovL2NhLm1v
Y2submVkcy+BFGNlcnRtYXN0ZXJAbW9jay5uZWRzMA0GCSqGSIb3DQEBCwUAA4IC
AQCX66gdi7fohpny1O/NGPVpGa4+7YS5O3ykEEr1YtupiK8bvhxn6Bw34POPlEVs
R0SpFq6TbTbkOG79NVTY6BSwdc9Yb4OZQVtMaKtj/qoEfCRblikm/HzyisiaTHK0
COiSk5JYGuP1UK58Rv6ofHd66Qa9+BOF2iw9LeUSWSO980FKfWQYxGJhY7eXfmhO
l8cDbsUYCW1yKIwaBHefGOuR5eAUpdVN3CQaZESYktnX3LYZjPM+w+odHN2MDGt+
1rFHaQZN9rAMeW4qDKvCtUbTkYSL/jWjYEQhUm/8sLVmOQ1+ALdoIP4bNz+XkxNG
zoU4siKf6aXt9pcv6nliu+Yd+n1ZOiM1XNwx60MnswPQox1h6MDbEs/jCtMyjjBA
/AgPcB7mgsDakZbh26KYZKVuuDC/KnCSXM9E8jZkKCBJ24mPOqfdmREel9moU2Kp
B0hGs+HtMCQR49rSdXF4Q9yZGRVaLnASHP0boYtCLRrF24D7qX0SGrt5TxxJUN5U
jjSGkPLn4BpTbBSSxdz/9PFsqjcU/puJv5mw9/biM8QFpdQuuXxiOteyNqbJ/Y8d
6xdmI652LKGIsMNoftTgb3ygmeTLxYmnbe9oVytRkvmmdixo3RFi64GLs80xTpAS
oMDuuR7rJMnrJeBWGJk+id9VnHQnRe7u4yWUiCDYSKEtaQ==
-----END CERTIFICATE-----
