Certificate:
    Data:
        Version: 3 (0x2)
        Serial Number:
            dd:ac:b1:db:fd:30:51:d0:4f:9c:03:29:f3:e9:36:fd
        Signature Algorithm: sha256WithRSAEncryption
        Issuer: O=NIIS, CN=NEDS Mock Root Certification Authority
        Validity
            Not Before: Oct 15 13:53:55 2021 GMT
            Not After : Oct 15 13:53:55 2026 GMT
        Subject: CN=neds-cef-smp.i.x-road.neds
        Subject Public Key Info:
            Public Key Algorithm: rsaEncryption
                RSA Public-Key: (2048 bit)
                Modulus:
                    00:ad:5d:9e:f6:21:ba:40:30:d8:4f:12:a7:24:c9:
                    65:6f:87:36:65:b4:bf:2d:62:ae:32:cc:f3:41:5b:
                    2b:c8:16:0f:9d:b3:ab:c1:56:0d:ee:60:03:99:02:
                    d6:e3:3e:50:d8:65:36:a1:37:ea:2f:91:b3:0e:7d:
                    7b:ad:f3:6d:20:f1:ae:8c:75:d4:15:30:42:29:46:
                    eb:27:f2:5c:ff:0f:9d:e5:1f:4d:08:5f:5b:be:a3:
                    1d:60:ad:e1:e6:f1:16:ff:ed:d3:92:ac:4a:3e:83:
                    b4:5b:c8:12:ad:bf:7e:3f:68:03:e6:07:cd:b8:36:
                    66:04:93:1d:7a:a6:ca:7f:cb:35:57:92:0b:1e:3a:
                    3d:ba:ec:b4:29:7a:7c:7c:fc:f2:3d:65:50:42:b4:
                    e1:80:44:66:2c:cc:9a:db:2d:61:13:11:1b:a8:b8:
                    57:db:eb:d3:42:80:9e:d8:d9:5e:55:1e:d1:cb:41:
                    f2:48:67:82:a9:86:d6:51:c3:51:3a:f9:26:1d:11:
                    c5:08:90:71:88:f7:08:86:d0:43:a2:53:28:d9:1a:
                    35:b3:d1:fe:88:d5:95:48:37:68:95:bc:7c:09:87:
                    a8:c6:3b:1b:c3:06:bd:2e:b1:fb:2f:85:0f:fd:80:
                    f6:b2:58:fd:ea:c3:22:fa:9a:5c:f6:a2:61:07:dc:
                    4b:63
                Exponent: 65537 (0x10001)
        X509v3 extensions:
            X509v3 Basic Constraints: 
                CA:FALSE
            X509v3 Key Usage: critical
                Digital Signature, Key Encipherment
            X509v3 Extended Key Usage: critical
                TLS Web Server Authentication, TLS Web Client Authentication
            X509v3 Subject Key Identifier: 
                CE:41:C7:11:8E:A4:C9:AB:DB:66:21:73:A8:D1:93:AF:83:EB:0E:F4
            X509v3 Authority Key Identifier: 
                keyid:6D:AE:34:0C:F9:30:83:3C:11:DA:D2:D6:B7:9D:D8:CD:95:9D:86:0C

            X509v3 Issuer Alternative Name: 
                URI:http://ca.mock.neds/, email:certmaster@mock.neds
    Signature Algorithm: sha256WithRSAEncryption
         76:c2:f4:b1:7f:4f:0b:12:4d:3b:88:d2:e1:68:3d:e6:1b:cc:
         9e:91:09:0e:81:74:39:9c:7a:71:e8:bf:46:5e:c0:ab:d0:a9:
         85:16:e1:1c:be:56:32:82:69:f9:db:7e:fd:0e:9c:0d:a9:97:
         19:59:48:2e:3c:97:49:79:d8:d5:84:26:2c:a4:ef:d6:24:67:
         c6:e8:6c:48:d7:24:c4:5b:a5:19:dc:5f:52:88:d3:ef:df:8a:
         b0:28:ed:d8:0e:7e:98:5b:4a:3c:c5:9b:01:f1:17:00:b6:98:
         c2:01:3b:d3:f0:78:09:e9:26:69:d5:f5:77:d3:79:6a:d2:32:
         8e:da:06:48:42:86:39:bc:2f:d0:6a:66:15:e8:f3:b0:9e:63:
         9a:5c:0b:75:2c:93:8d:52:99:68:5b:23:3f:64:a4:5d:93:1f:
         75:fc:ff:26:dc:1a:c9:61:b8:cc:c6:a4:03:17:80:f1:6a:6d:
         ad:1b:e9:44:3c:a4:e2:80:cc:2c:82:8d:e3:8a:ac:ab:19:77:
         88:9c:98:ac:fe:79:85:ec:04:ef:d8:a3:19:e3:b4:f8:27:e1:
         bd:3e:5e:c6:bb:53:02:a5:9c:79:71:e3:12:e7:30:2a:1c:99:
         8a:28:4f:ab:2b:e3:93:2d:9c:4a:b4:4e:3a:40:ae:4d:f3:45:
         79:9a:82:52:1c:5b:33:5f:c6:81:fd:56:b9:12:c2:e0:c2:fb:
         3f:84:99:8b:93:e6:da:2c:f5:79:bb:f1:67:a6:a7:8d:94:24:
         2a:d5:f9:81:28:98:f0:83:4c:31:ec:37:6d:57:ed:b1:eb:41:
         8c:76:25:e9:0e:80:c3:18:20:0b:81:f0:c5:cd:07:74:81:8c:
         e5:9e:8c:af:cf:08:23:c4:4f:b3:b2:c2:6d:40:71:b0:55:0a:
         3f:3d:64:94:84:66:f4:16:54:51:cf:28:b9:e8:fd:88:31:87:
         f5:eb:4f:4d:3b:53:b3:f2:85:6e:d8:46:98:50:3b:14:67:74:
         3a:f9:e0:ca:fb:df:4e:dd:75:30:40:f9:a2:c1:fe:d8:dd:5f:
         05:72:3e:a9:a1:36:d5:c2:77:a3:05:89:38:60:b3:8b:58:d7:
         d3:3a:88:bd:4c:a6:89:50:65:0a:69:92:7d:70:3f:57:4d:6e:
         20:bf:65:1a:53:ca:48:6c:05:9e:6e:39:28:4e:ee:d9:ba:46:
         43:e1:02:ff:99:bd:4e:53:77:c0:0f:f1:47:20:22:89:f9:5b:
         ef:01:bc:54:74:92:b2:9e:35:d6:f3:d4:b6:d6:3a:82:fd:06:
         dc:fd:d4:8d:bf:79:f3:e5:cb:95:f7:09:a3:54:fe:90:d1:0e:
         14:6e:b5:82:74:6d:8c:fa
-----BEGIN CERTIFICATE-----
MIIEqDCCApCgAwIBAgIRAN2ssdv9MFHQT5wDKfPpNv0wDQYJKoZIhvcNAQELBQAw
QDENMAsGA1UECgwETklJUzEvMC0GA1UEAwwmTkVEUyBNb2NrIFJvb3QgQ2VydGlm
aWNhdGlvbiBBdXRob3JpdHkwHhcNMjExMDE1MTM1MzU1WhcNMjYxMDE1MTM1MzU1
WjAlMSMwIQYDVQQDDBpuZWRzLWNlZi1zbXAuaS54LXJvYWQubmVkczCCASIwDQYJ
KoZIhvcNAQEBBQADggEPADCCAQoCggEBAK1dnvYhukAw2E8SpyTJZW+HNmW0vy1i
rjLM80FbK8gWD52zq8FWDe5gA5kC1uM+UNhlNqE36i+Rsw59e63zbSDxrox11BUw
QilG6yfyXP8PneUfTQhfW76jHWCt4ebxFv/t05KsSj6DtFvIEq2/fj9oA+YHzbg2
ZgSTHXqmyn/LNVeSCx46PbrstCl6fHz88j1lUEK04YBEZizMmtstYRMRG6i4V9vr
00KAntjZXlUe0ctB8khngqmG1lHDUTr5Jh0RxQiQcYj3CIbQQ6JTKNkaNbPR/ojV
lUg3aJW8fAmHqMY7G8MGvS6x+y+FD/2A9rJY/erDIvqaXPaiYQfcS2MCAwEAAaOB
tzCBtDAJBgNVHRMEAjAAMA4GA1UdDwEB/wQEAwIFoDAgBgNVHSUBAf8EFjAUBggr
BgEFBQcDAQYIKwYBBQUHAwIwHQYDVR0OBBYEFM5BxxGOpMmr22Yhc6jRk6+D6w70
MB8GA1UdIwQYMBaAFG2uNAz5MIM8EdrS1red2M2VnYYMMDUGA1UdEgQuMCyGFGh0
dHA6Ly9jYS5tb2NrLm5lZHMvgRRjZXJ0bWFzdGVyQG1vY2submVkczANBgkqhkiG
9w0BAQsFAAOCAgEAdsL0sX9PCxJNO4jS4Wg95hvMnpEJDoF0OZx6cei/Rl7Aq9Cp
hRbhHL5WMoJp+dt+/Q6cDamXGVlILjyXSXnY1YQmLKTv1iRnxuhsSNckxFulGdxf
UojT79+KsCjt2A5+mFtKPMWbAfEXALaYwgE70/B4CekmadX1d9N5atIyjtoGSEKG
Obwv0GpmFejzsJ5jmlwLdSyTjVKZaFsjP2SkXZMfdfz/JtwayWG4zMakAxeA8Wpt
rRvpRDyk4oDMLIKN44qsqxl3iJyYrP55hewE79ijGeO0+CfhvT5exrtTAqWceXHj
EucwKhyZiihPqyvjky2cSrROOkCuTfNFeZqCUhxbM1/Ggf1WuRLC4ML7P4SZi5Pm
2iz1ebvxZ6anjZQkKtX5gSiY8INMMew3bVftsetBjHYl6Q6AwxggC4Hwxc0HdIGM
5Z6Mr88II8RPs7LCbUBxsFUKPz1klIRm9BZUUc8ouej9iDGH9etPTTtTs/KFbthG
mFA7FGd0OvngyvvfTt11MED5osH+2N1fBXI+qaE21cJ3owWJOGCzi1jX0zqIvUym
iVBlCmmSfXA/V01uIL9lGlPKSGwFnm45KE7u2bpGQ+EC/5m9TlN3wA/xRyAiiflb
7wG8VHSSsp411vPUttY6gv0G3P3Ujb958+XLlfcJo1T+kNEOFG61gnRtjPo=
-----END CERTIFICATE-----
