Certificate:
    Data:
        Version: 3 (0x2)
        Serial Number:
            b5:fe:07:43:a0:d6:b4:98:2d:39:0b:c5:ef:53:8e:da
        Signature Algorithm: sha256WithRSAEncryption
        Issuer: O=NIIS, CN=NEDS Mock Root Certification Authority
        Validity
            Not Before: Oct 14 15:12:30 2021 GMT
            Not After : Oct 14 15:12:30 2026 GMT
        Subject: CN=niis-smp_tls.neds
        Subject Public Key Info:
            Public Key Algorithm: rsaEncryption
                RSA Public-Key: (2048 bit)
                Modulus:
                    00:ba:31:78:b8:31:60:1c:91:a6:80:75:25:cd:eb:
                    12:6d:23:b5:43:e7:4d:73:28:71:ea:0c:0d:19:cd:
                    48:02:11:d4:f9:a6:56:a8:a8:a6:16:d2:8b:3b:a4:
                    cb:89:28:b6:b5:47:36:4f:0e:ee:17:39:35:04:ed:
                    06:5f:79:07:4c:6a:89:b3:d8:4f:0a:83:90:11:93:
                    44:d4:74:24:e3:75:5e:53:4e:8a:25:b3:49:bb:40:
                    d5:93:15:93:8b:42:b4:5c:d5:95:0f:3c:3f:1c:51:
                    e7:76:be:c9:2b:0f:d3:82:52:ad:cd:67:23:28:2f:
                    b3:2a:ee:55:e3:8c:1b:08:81:da:90:f2:03:7a:5d:
                    93:ba:ae:09:2d:c1:66:b8:ba:91:ee:ca:a6:e5:21:
                    3a:bc:7c:7a:de:18:77:61:d6:c3:dd:85:e5:52:5b:
                    b1:59:44:4f:40:42:84:9e:78:28:f1:cf:0e:5b:14:
                    e2:24:0b:35:a7:df:16:cb:6f:d0:01:39:7d:ee:0a:
                    90:78:88:02:3e:ba:f4:dd:7e:83:35:28:4e:4d:22:
                    88:04:07:fc:81:24:8c:e5:8c:fc:12:05:ee:87:64:
                    e2:02:99:bc:62:69:9c:4d:9a:c3:e3:b3:e2:d0:db:
                    3e:69:33:3d:ee:f3:fe:a4:99:55:0f:74:04:24:e0:
                    46:07
                Exponent: 65537 (0x10001)
        X509v3 extensions:
            X509v3 Basic Constraints: 
                CA:FALSE
            X509v3 Key Usage: critical
                Digital Signature, Key Encipherment
            X509v3 Extended Key Usage: critical
                TLS Web Server Authentication, TLS Web Client Authentication
            X509v3 Subject Key Identifier: 
                19:BC:CC:41:7C:DF:4B:91:7E:EB:1B:D7:9E:1B:36:81:0A:5B:40:C2
            X509v3 Authority Key Identifier: 
                keyid:6D:AE:34:0C:F9:30:83:3C:11:DA:D2:D6:B7:9D:D8:CD:95:9D:86:0C

            X509v3 Issuer Alternative Name: 
                URI:http://ca.mock.neds/, email:certmaster@mock.neds
    Signature Algorithm: sha256WithRSAEncryption
         7d:13:fb:5f:f1:36:81:36:cf:75:4d:d7:10:b1:9a:b1:5b:3f:
         35:9a:eb:33:52:36:af:49:15:93:0d:c8:02:ee:67:26:c2:d2:
         59:d8:55:64:f8:89:31:a3:71:fd:ca:33:2a:ed:d5:ed:04:41:
         98:c4:7e:90:85:18:74:12:c4:90:60:4a:d3:48:1b:dc:2b:0c:
         dc:11:17:fc:27:05:a9:96:bc:79:45:58:21:99:35:fa:4e:c0:
         63:9a:ad:37:3e:1f:17:2c:47:ea:30:2e:8e:c3:c3:17:25:8e:
         26:a8:2a:f5:ec:72:50:82:47:36:ad:ac:97:1c:b5:4b:18:59:
         16:59:d5:14:14:a0:7c:91:8c:04:ee:60:46:4b:64:2d:b7:ad:
         37:fe:38:8e:a7:fb:ce:6c:d5:60:af:ff:45:a5:31:da:64:aa:
         dd:ae:0d:50:da:11:8e:d6:bd:04:4c:a5:ef:f5:0d:71:34:a5:
         32:bd:ec:4e:84:ca:1c:8b:e9:7a:80:f5:8b:0f:b0:93:dc:e1:
         62:e2:8c:d3:87:1d:ad:05:e9:b4:43:ce:5a:12:c6:08:7a:3a:
         d8:ce:ac:8f:44:2f:62:3a:57:06:23:71:ea:5d:59:04:31:4a:
         ef:63:dd:c9:d1:78:92:a4:82:37:dc:4d:86:07:56:e7:0c:e5:
         57:d1:9d:e6:8e:8b:23:7d:9e:3a:7f:52:7a:dc:82:cd:f4:3a:
         9e:a2:e8:fd:e0:05:f3:1e:83:6f:26:14:f9:b9:8f:53:87:e4:
         bf:db:64:79:35:70:09:cf:f6:ce:a4:e3:26:06:1a:1a:64:fc:
         f4:90:b7:98:8a:c7:c9:0f:23:63:18:a8:3f:35:ae:bc:67:71:
         81:ad:3a:0d:f1:09:ce:a2:54:91:c4:27:bf:6a:34:d1:88:0a:
         70:43:07:62:e0:f8:85:fe:40:d3:84:da:83:fc:49:ad:25:34:
         74:7c:01:f0:f3:68:69:df:4b:db:ad:e0:4e:fa:e2:92:3c:7a:
         66:21:e3:da:68:4e:3c:e0:2a:78:89:13:fb:1a:f0:5b:38:66:
         3d:52:67:c7:6e:fa:01:ea:7f:65:15:bc:f4:10:f6:ef:0d:08:
         8d:67:d8:9a:a0:e8:37:2e:97:50:e1:f7:bc:ea:c4:78:9e:fa:
         da:94:57:cf:39:64:9d:8f:90:97:e6:8a:3b:a0:25:44:91:2b:
         43:4d:c0:05:20:fe:5e:55:23:a3:f5:53:a0:29:9a:05:b3:0e:
         30:a0:0a:53:6e:a8:f5:45:4b:57:88:e9:32:ba:26:7c:64:e5:
         8e:2f:0a:c0:f7:ce:0c:3a:b6:f0:60:fb:16:20:fc:f5:f1:ab:
         94:90:bc:14:02:bb:a9:3a
-----BEGIN CERTIFICATE-----
MIIEnzCCAoegAwIBAgIRALX+B0Og1rSYLTkLxe9TjtowDQYJKoZIhvcNAQELBQAw
QDENMAsGA1UECgwETklJUzEvMC0GA1UEAwwmTkVEUyBNb2NrIFJvb3QgQ2VydGlm
aWNhdGlvbiBBdXRob3JpdHkwHhcNMjExMDE0MTUxMjMwWhcNMjYxMDE0MTUxMjMw
WjAcMRowGAYDVQQDDBFuaWlzLXNtcF90bHMubmVkczCCASIwDQYJKoZIhvcNAQEB
BQADggEPADCCAQoCggEBALoxeLgxYByRpoB1Jc3rEm0jtUPnTXMoceoMDRnNSAIR
1PmmVqiophbSizuky4kotrVHNk8O7hc5NQTtBl95B0xqibPYTwqDkBGTRNR0JON1
XlNOiiWzSbtA1ZMVk4tCtFzVlQ88PxxR53a+ySsP04JSrc1nIygvsyruVeOMGwiB
2pDyA3pdk7quCS3BZri6ke7KpuUhOrx8et4Yd2HWw92F5VJbsVlET0BChJ54KPHP
DlsU4iQLNaffFstv0AE5fe4KkHiIAj669N1+gzUoTk0iiAQH/IEkjOWM/BIF7odk
4gKZvGJpnE2aw+Oz4tDbPmkzPe7z/qSZVQ90BCTgRgcCAwEAAaOBtzCBtDAJBgNV
HRMEAjAAMA4GA1UdDwEB/wQEAwIFoDAgBgNVHSUBAf8EFjAUBggrBgEFBQcDAQYI
KwYBBQUHAwIwHQYDVR0OBBYEFBm8zEF830uRfusb154bNoEKW0DCMB8GA1UdIwQY
MBaAFG2uNAz5MIM8EdrS1red2M2VnYYMMDUGA1UdEgQuMCyGFGh0dHA6Ly9jYS5t
b2NrLm5lZHMvgRRjZXJ0bWFzdGVyQG1vY2submVkczANBgkqhkiG9w0BAQsFAAOC
AgEAfRP7X/E2gTbPdU3XELGasVs/NZrrM1I2r0kVkw3IAu5nJsLSWdhVZPiJMaNx
/cozKu3V7QRBmMR+kIUYdBLEkGBK00gb3CsM3BEX/CcFqZa8eUVYIZk1+k7AY5qt
Nz4fFyxH6jAujsPDFyWOJqgq9exyUIJHNq2slxy1SxhZFlnVFBSgfJGMBO5gRktk
LbetN/44jqf7zmzVYK//RaUx2mSq3a4NUNoRjta9BEyl7/UNcTSlMr3sToTKHIvp
eoD1iw+wk9zhYuKM04cdrQXptEPOWhLGCHo62M6sj0QvYjpXBiNx6l1ZBDFK72Pd
ydF4kqSCN9xNhgdW5wzlV9Gd5o6LI32eOn9SetyCzfQ6nqLo/eAF8x6DbyYU+bmP
U4fkv9tkeTVwCc/2zqTjJgYaGmT89JC3mIrHyQ8jYxioPzWuvGdxga06DfEJzqJU
kcQnv2o00YgKcEMHYuD4hf5A04Tag/xJrSU0dHwB8PNoad9L263gTvrikjx6ZiHj
2mhOPOAqeIkT+xrwWzhmPVJnx276Aep/ZRW89BD27w0IjWfYmqDoNy6XUOH3vOrE
eJ762pRXzzlknY+Ql+aKO6AlRJErQ03ABSD+XlUjo/VToCmaBbMOMKAKU26o9UVL
V4jpMromfGTlji8KwPfODDq28GD7FiD89fGrlJC8FAK7qTo=
-----END CERTIFICATE-----
