Certificate:
    Data:
        Version: 3 (0x2)
        Serial Number:
            c4:e3:36:f5:70:c6:76:28:7e:fc:56:e3:cb:99:b5:a5
        Signature Algorithm: sha256WithRSAEncryption
        Issuer: O=NIIS, CN=NEDS Mock Root Certification Authority
        Validity
            Not Before: Oct 14 15:11:27 2021 GMT
            Not After : Oct 14 15:11:27 2026 GMT
        Subject: CN=niis-smp.neds
        Subject Public Key Info:
            Public Key Algorithm: rsaEncryption
                RSA Public-Key: (2048 bit)
                Modulus:
                    00:9d:f1:74:be:ca:4e:bf:0d:c2:40:94:61:b0:a9:
                    a6:57:68:0d:e6:90:2e:74:8c:1e:60:41:70:6b:a9:
                    b2:d1:64:aa:8b:cc:2c:e6:45:c0:94:a7:92:67:b3:
                    a5:4a:e2:a4:1a:2a:23:8f:99:0d:2b:42:eb:75:f1:
                    78:41:4b:3c:97:80:1c:0f:d6:f1:f5:5c:a1:8f:77:
                    77:fd:68:cb:8a:d3:8b:4b:2e:15:1e:58:0b:8b:54:
                    50:bc:a1:6e:52:13:4d:57:a4:a0:62:8b:71:ab:d0:
                    c9:e5:a5:b3:4d:ee:94:7c:1f:0e:8e:5a:16:1f:b9:
                    34:82:be:37:48:97:c3:93:55:65:f2:58:76:97:29:
                    60:f8:91:df:4b:e2:66:14:9f:ef:05:56:63:af:22:
                    17:34:58:ce:df:88:48:21:a8:96:73:63:d9:02:9e:
                    c0:19:1b:0f:bd:55:20:72:13:91:aa:c3:8c:06:a9:
                    5f:94:1d:c0:93:be:bd:f3:24:cd:4d:04:57:1b:52:
                    80:18:bd:dd:78:7f:06:c5:d8:f7:61:da:dd:ae:e1:
                    40:69:ee:65:40:22:ac:e6:5a:96:36:78:a2:74:9d:
                    fb:40:85:72:5e:8a:9d:13:eb:e0:65:62:9a:e4:ca:
                    e6:e4:14:bc:16:be:d1:9f:c6:c4:c7:7a:dd:4d:55:
                    57:75
                Exponent: 65537 (0x10001)
        X509v3 extensions:
            X509v3 Basic Constraints: 
                CA:FALSE
            X509v3 Key Usage: critical
                Digital Signature, Key Encipherment
            X509v3 Extended Key Usage: critical
                TLS Web Server Authentication, TLS Web Client Authentication
            X509v3 Subject Key Identifier: 
                3F:71:91:02:20:83:4F:BF:D4:EF:F9:CF:A8:CB:6F:2A:11:26:80:2A
            X509v3 Authority Key Identifier: 
                keyid:6D:AE:34:0C:F9:30:83:3C:11:DA:D2:D6:B7:9D:D8:CD:95:9D:86:0C

            X509v3 Issuer Alternative Name: 
                URI:http://ca.mock.neds/, email:certmaster@mock.neds
    Signature Algorithm: sha256WithRSAEncryption
         42:39:aa:aa:87:71:0f:aa:8e:b9:78:7f:f6:08:ee:49:05:45:
         53:60:4d:d2:09:00:08:4d:ff:40:ce:73:b4:ca:85:d3:7e:e8:
         56:39:4c:0b:68:fa:e1:d0:ba:44:52:0b:1b:d3:0c:b6:6e:f0:
         0f:1a:b2:aa:bd:8d:b0:a8:a3:99:12:06:62:c0:7a:f5:69:24:
         c3:aa:fa:a4:ff:f3:d7:42:eb:ec:40:95:a0:1b:a4:59:c8:5b:
         5b:a0:bd:8c:81:ee:fa:4c:f6:60:8b:7f:9f:7c:a2:77:4f:a4:
         d3:ca:f3:36:02:ea:53:4b:8f:12:e0:5b:76:87:d2:a4:8d:8a:
         b8:66:3c:1a:1b:16:b4:4e:28:c6:b8:d2:c6:2f:cd:8b:bb:50:
         3c:32:14:a5:ff:aa:e0:33:2e:e6:40:21:41:ae:42:84:ef:c1:
         33:e1:d5:64:f6:c2:f4:3d:1f:5d:f3:6e:b3:50:eb:ae:df:2a:
         8f:e4:98:99:03:53:40:01:6c:28:67:92:ab:6a:23:c5:a7:d1:
         e0:cf:3f:ee:71:c2:bd:6e:8c:1e:b8:b5:17:2c:5e:63:77:42:
         06:3a:1d:c8:89:b3:12:28:49:9e:92:40:d1:b8:c3:e9:63:93:
         7a:15:1c:f8:1e:10:f3:a4:5c:78:ee:43:8f:55:d0:6e:14:84:
         03:af:00:29:e1:0b:ae:fd:08:76:c7:d8:d6:82:8c:a7:8d:81:
         13:1e:5f:44:78:4c:c0:a9:78:bb:39:f0:84:c7:86:02:92:42:
         29:39:89:46:af:02:a4:f0:c8:b1:75:a9:73:35:1c:56:64:62:
         7c:59:90:63:19:88:5a:7f:37:0a:bc:77:fa:92:b5:a8:df:2b:
         62:e9:34:52:ff:32:db:85:c8:a2:7b:0d:1c:a4:ac:c2:fa:46:
         7d:f3:e8:16:0c:99:d2:02:48:b2:8a:55:57:5d:10:c3:9e:2f:
         ad:ad:50:45:34:39:74:8d:1b:7e:ea:d0:33:78:3d:e0:ee:10:
         2b:49:4c:1c:42:23:08:8a:f5:f5:5b:99:f0:a1:a7:8f:f9:b0:
         7d:ea:d8:ad:d4:b0:88:93:5d:6c:bd:27:47:df:fc:52:4a:3b:
         a4:73:87:d3:a6:e7:6a:b7:cc:e6:9c:75:86:fe:27:df:2b:6f:
         0f:53:74:05:d7:39:2d:c1:33:ff:f3:ff:6c:f0:9d:cf:4c:77:
         51:f8:23:1b:5a:62:a6:33:6a:e8:0e:5f:cb:a7:46:44:f1:ef:
         e1:e9:b4:aa:83:ef:7c:9d:de:f0:56:73:8b:8c:b4:d9:6b:b0:
         c3:e8:cc:21:22:f7:c3:34:36:8e:de:b8:65:ae:75:29:0f:be:
         d6:a4:03:69:59:a3:84:89
-----BEGIN CERTIFICATE-----
MIIEmzCCAoOgAwIBAgIRAMTjNvVwxnYofvxW48uZtaUwDQYJKoZIhvcNAQELBQAw
QDENMAsGA1UECgwETklJUzEvMC0GA1UEAwwmTkVEUyBNb2NrIFJvb3QgQ2VydGlm
aWNhdGlvbiBBdXRob3JpdHkwHhcNMjExMDE0MTUxMTI3WhcNMjYxMDE0MTUxMTI3
WjAYMRYwFAYDVQQDDA1uaWlzLXNtcC5uZWRzMIIBIjANBgkqhkiG9w0BAQEFAAOC
AQ8AMIIBCgKCAQEAnfF0vspOvw3CQJRhsKmmV2gN5pAudIweYEFwa6my0WSqi8ws
5kXAlKeSZ7OlSuKkGiojj5kNK0LrdfF4QUs8l4AcD9bx9Vyhj3d3/WjLitOLSy4V
HlgLi1RQvKFuUhNNV6SgYotxq9DJ5aWzTe6UfB8OjloWH7k0gr43SJfDk1Vl8lh2
lylg+JHfS+JmFJ/vBVZjryIXNFjO34hIIaiWc2PZAp7AGRsPvVUgchORqsOMBqlf
lB3Ak7698yTNTQRXG1KAGL3deH8Gxdj3YdrdruFAae5lQCKs5lqWNniidJ37QIVy
XoqdE+vgZWKa5Mrm5BS8Fr7Rn8bEx3rdTVVXdQIDAQABo4G3MIG0MAkGA1UdEwQC
MAAwDgYDVR0PAQH/BAQDAgWgMCAGA1UdJQEB/wQWMBQGCCsGAQUFBwMBBggrBgEF
BQcDAjAdBgNVHQ4EFgQUP3GRAiCDT7/U7/nPqMtvKhEmgCowHwYDVR0jBBgwFoAU
ba40DPkwgzwR2tLWt53YzZWdhgwwNQYDVR0SBC4wLIYUaHR0cDovL2NhLm1vY2su
bmVkcy+BFGNlcnRtYXN0ZXJAbW9jay5uZWRzMA0GCSqGSIb3DQEBCwUAA4ICAQBC
Oaqqh3EPqo65eH/2CO5JBUVTYE3SCQAITf9AznO0yoXTfuhWOUwLaPrh0LpEUgsb
0wy2bvAPGrKqvY2wqKOZEgZiwHr1aSTDqvqk//PXQuvsQJWgG6RZyFtboL2Mge76
TPZgi3+ffKJ3T6TTyvM2AupTS48S4Ft2h9KkjYq4ZjwaGxa0TijGuNLGL82Lu1A8
MhSl/6rgMy7mQCFBrkKE78Ez4dVk9sL0PR9d826zUOuu3yqP5JiZA1NAAWwoZ5Kr
aiPFp9Hgzz/uccK9boweuLUXLF5jd0IGOh3IibMSKEmekkDRuMPpY5N6FRz4HhDz
pFx47kOPVdBuFIQDrwAp4Quu/Qh2x9jWgoynjYETHl9EeEzAqXi7OfCEx4YCkkIp
OYlGrwKk8MixdalzNRxWZGJ8WZBjGYhafzcKvHf6krWo3yti6TRS/zLbhciiew0c
pKzC+kZ98+gWDJnSAkiyilVXXRDDni+trVBFNDl0jRt+6tAzeD3g7hArSUwcQiMI
ivX1W5nwoaeP+bB96tit1LCIk11svSdH3/xSSjukc4fTpudqt8zmnHWG/iffK28P
U3QF1zktwTP/8/9s8J3PTHdR+CMbWmKmM2roDl/Lp0ZE8e/h6bSqg+98nd7wVnOL
jLTZa7DD6MwhIvfDNDaO3rhlrnUpD77WpANpWaOEiQ==
-----END CERTIFICATE-----
