Certificate:
    Data:
        Version: 3 (0x2)
        Serial Number:
            4e:01:65:0c:f8:13:81:2c:09:0d:14:90:ea:cb:1b:6f
        Signature Algorithm: sha256WithRSAEncryption
        Issuer: O=NIIS, CN=NEDS Mock Root Certification Authority
        Validity
            Not Before: Sep 13 00:00:00 2021 GMT
            Not After : Sep 15 00:00:00 2031 GMT
        Subject: O=NIIS, CN=NEDS Mock Root Certification Authority
        Subject Public Key Info:
            Public Key Algorithm: rsaEncryption
                RSA Public-Key: (4096 bit)
                Modulus:
                    00:9e:13:02:bc:ff:6b:c5:c0:cf:8e:9c:b6:52:5c:
                    d2:5d:9d:80:d6:c8:7b:bf:96:f9:77:c5:fc:05:01:
                    74:7a:a5:44:60:df:de:cd:d2:8b:56:71:da:54:39:
                    1d:46:ce:5f:84:a3:a3:c3:48:3c:71:24:ff:ce:7d:
                    6d:87:ad:cd:e0:b0:b7:b9:6b:cc:e5:db:32:54:ac:
                    ea:8a:f3:b8:dd:ec:19:97:7f:26:38:6d:68:17:24:
                    ea:bc:96:e6:27:b9:61:42:12:54:ec:5b:7b:f6:9f:
                    3a:72:da:c0:ee:01:cd:b1:c0:19:95:81:2a:58:eb:
                    d2:46:f5:ed:02:bc:72:fe:58:65:c8:9b:c7:1b:2e:
                    e2:4a:2e:b6:19:fa:0d:30:da:40:f5:6c:71:b7:3a:
                    a5:4f:e7:c1:3d:00:69:1b:59:fc:6c:12:e1:25:53:
                    56:0f:54:00:a9:42:2d:96:9b:5b:55:61:74:8e:f2:
                    fd:c8:07:53:7c:01:b0:b8:cd:e1:f1:9a:78:dc:dd:
                    12:5a:eb:a0:9e:a0:c6:bd:bd:0e:d9:1d:ec:5e:f1:
                    e2:92:2c:16:72:4e:5c:52:19:91:81:59:d7:25:74:
                    c4:bb:c1:ca:8f:76:fc:3d:7e:40:03:d8:21:10:7c:
                    18:47:cd:e4:27:9f:d2:d8:24:66:3a:d9:cc:8d:e1:
                    e9:cc:f5:95:f2:a3:d1:b9:a9:ad:72:8d:b1:0c:97:
                    17:ec:45:e1:5a:63:7a:bd:2d:8e:ab:ab:10:a0:7f:
                    9d:38:cf:36:fd:a9:7a:d0:bc:4f:0c:76:5d:51:9d:
                    1d:48:93:de:b1:1b:0b:e9:f7:9c:55:25:af:5a:c4:
                    d1:27:db:9d:c9:0d:4c:ec:4d:f7:32:8f:34:2e:5b:
                    21:da:b2:c5:8e:08:2a:02:6b:d5:e7:64:12:69:44:
                    51:26:7e:b5:4d:d4:cf:3c:b0:e3:9d:26:5c:ca:d7:
                    ac:94:23:e7:9c:fb:59:50:4c:bf:64:89:9e:75:a6:
                    ce:e2:60:02:46:14:bb:b6:40:19:3f:66:60:a8:77:
                    7c:90:74:5a:40:cb:e7:4d:3f:ae:80:f9:60:1b:22:
                    b5:ab:01:98:74:6c:dc:da:f3:7e:d1:c3:87:b1:d0:
                    f4:f7:ef:2c:80:25:d1:d0:0d:b1:82:23:9f:f8:b6:
                    35:2e:28:61:29:5c:09:d2:34:e0:bc:be:49:69:cb:
                    f2:2a:1a:b9:02:32:db:13:9d:7f:19:5f:dd:ea:7a:
                    23:6f:92:78:91:bb:cd:34:cd:74:97:f6:9a:99:a2:
                    65:bc:4b:0e:d9:7e:c9:ba:5c:9c:7b:3d:c9:b7:0c:
                    d7:46:60:50:92:dd:fb:fd:7e:37:99:9a:81:c7:e5:
                    ea:a3:39
                Exponent: 65537 (0x10001)
        X509v3 extensions:
            X509v3 Basic Constraints: critical
                CA:TRUE
            X509v3 Key Usage: critical
                Certificate Sign, CRL Sign
            X509v3 Subject Key Identifier: 
                6D:AE:34:0C:F9:30:83:3C:11:DA:D2:D6:B7:9D:D8:CD:95:9D:86:0C
            X509v3 Subject Alternative Name: 
                URI:http://ca.mock.neds/, email:certmaster@mock.neds
            X509v3 Authority Key Identifier: 
                keyid:6D:AE:34:0C:F9:30:83:3C:11:DA:D2:D6:B7:9D:D8:CD:95:9D:86:0C

            X509v3 Issuer Alternative Name: 
                URI:http://ca.mock.neds/, email:certmaster@mock.neds
    Signature Algorithm: sha256WithRSAEncryption
         41:df:75:db:43:a7:88:32:7f:4f:07:eb:49:06:24:17:a8:9a:
         e1:be:84:d6:5a:e1:38:a9:44:e0:ad:86:1c:9e:6d:0f:dd:18:
         44:12:fa:0e:ba:a3:fa:9c:8f:a0:8b:0a:ee:59:ca:39:d1:ef:
         9d:84:46:48:89:45:55:80:36:dd:05:0f:cb:4d:07:5b:32:df:
         2d:63:38:e0:13:3b:34:f1:e1:2e:0e:d2:1c:7e:7f:6e:38:43:
         a9:e0:bf:3c:99:93:a0:e4:2d:9f:34:1f:41:f0:e6:2b:c2:a4:
         7f:fb:e1:8b:db:5c:06:c0:72:03:36:e7:d4:8a:33:4e:5b:5c:
         4d:71:e9:84:e5:f1:60:6f:84:b3:e9:c3:74:a6:01:8e:4b:55:
         7b:8d:d0:67:cc:68:f9:0d:78:6d:10:2d:b5:e2:eb:06:e9:fc:
         a1:cc:4f:4f:62:87:78:b0:ba:4e:d5:f6:88:4e:94:e2:b4:e7:
         80:fd:9a:8f:a5:88:cb:80:6d:2e:9b:22:85:4d:6e:d0:f3:c6:
         ff:e5:04:63:00:be:42:a4:77:b4:36:f2:b0:03:9d:ac:12:a4:
         6d:46:1a:ca:8e:36:6a:17:91:f9:88:43:a6:a0:68:9d:4d:70:
         86:c0:98:16:c1:99:c5:5b:de:a6:7f:64:fa:34:c4:7b:77:a1:
         59:d7:f3:83:a5:19:6c:7d:fa:3c:5f:16:81:1b:14:1d:01:69:
         24:96:e2:ac:45:18:0e:14:bb:da:23:c3:80:c3:b5:5f:12:77:
         da:79:67:b9:4f:9c:1e:04:8a:3c:3e:49:1a:48:b5:4c:ea:1b:
         75:ec:f9:cc:05:14:17:a3:90:7c:48:30:fe:03:53:d1:9c:4e:
         ca:c1:65:ac:8f:65:d1:c4:a3:1e:46:09:9c:7c:00:6c:a5:0c:
         3b:12:6b:7b:77:37:ab:a8:97:c7:a2:01:b7:58:23:10:79:93:
         e4:9f:48:ed:38:ba:4a:96:9f:39:f6:43:81:31:da:e3:41:99:
         e8:bd:6a:da:ca:ee:d1:6f:a9:62:19:05:cc:69:ab:9e:a3:d1:
         13:d9:54:5d:7b:95:f4:9e:65:af:41:d0:98:b4:03:41:37:fa:
         82:f6:07:58:ff:ae:e7:7f:2c:3a:b9:6c:e0:9c:f1:75:fc:96:
         da:dd:7c:59:6d:74:42:16:54:cb:bb:ed:90:59:60:aa:e6:9f:
         56:0e:2c:3d:a6:2b:ae:81:d1:c0:6c:74:4d:41:be:22:30:b2:
         d1:29:7d:d8:00:31:e0:2e:f5:bd:74:55:9f:39:63:55:cf:0d:
         11:00:69:f6:6f:68:22:a3:38:8f:e8:a0:9c:33:57:7d:f5:b6:
         bc:e4:03:ad:9d:e4:6a:66
-----BEGIN CERTIFICATE-----
MIIF3TCCA8WgAwIBAgIQTgFlDPgTgSwJDRSQ6ssbbzANBgkqhkiG9w0BAQsFADBA
MQ0wCwYDVQQKDAROSUlTMS8wLQYDVQQDDCZORURTIE1vY2sgUm9vdCBDZXJ0aWZp
Y2F0aW9uIEF1dGhvcml0eTAeFw0yMTA5MTMwMDAwMDBaFw0zMTA5MTUwMDAwMDBa
MEAxDTALBgNVBAoMBE5JSVMxLzAtBgNVBAMMJk5FRFMgTW9jayBSb290IENlcnRp
ZmljYXRpb24gQXV0aG9yaXR5MIICIjANBgkqhkiG9w0BAQEFAAOCAg8AMIICCgKC
AgEAnhMCvP9rxcDPjpy2UlzSXZ2A1sh7v5b5d8X8BQF0eqVEYN/ezdKLVnHaVDkd
Rs5fhKOjw0g8cST/zn1th63N4LC3uWvM5dsyVKzqivO43ewZl38mOG1oFyTqvJbm
J7lhQhJU7Ft79p86ctrA7gHNscAZlYEqWOvSRvXtArxy/lhlyJvHGy7iSi62GfoN
MNpA9WxxtzqlT+fBPQBpG1n8bBLhJVNWD1QAqUItlptbVWF0jvL9yAdTfAGwuM3h
8Zp43N0SWuugnqDGvb0O2R3sXvHikiwWck5cUhmRgVnXJXTEu8HKj3b8PX5AA9gh
EHwYR83kJ5/S2CRmOtnMjeHpzPWV8qPRuamtco2xDJcX7EXhWmN6vS2Oq6sQoH+d
OM82/al60LxPDHZdUZ0dSJPesRsL6fecVSWvWsTRJ9udyQ1M7E33Mo80Llsh2rLF
jggqAmvV52QSaURRJn61TdTPPLDjnSZcyteslCPnnPtZUEy/ZImedabO4mACRhS7
tkAZP2ZgqHd8kHRaQMvnTT+ugPlgGyK1qwGYdGzc2vN+0cOHsdD09+8sgCXR0A2x
giOf+LY1LihhKVwJ0jTgvL5JacvyKhq5AjLbE51/GV/d6nojb5J4kbvNNM10l/aa
maJlvEsO2X7Julycez3JtwzXRmBQkt37/X43mZqBx+XqozkCAwEAAaOB0jCBzzAP
BgNVHRMBAf8EBTADAQH/MA4GA1UdDwEB/wQEAwIBBjAdBgNVHQ4EFgQUba40DPkw
gzwR2tLWt53YzZWdhgwwNQYDVR0RBC4wLIYUaHR0cDovL2NhLm1vY2submVkcy+B
FGNlcnRtYXN0ZXJAbW9jay5uZWRzMB8GA1UdIwQYMBaAFG2uNAz5MIM8EdrS1red
2M2VnYYMMDUGA1UdEgQuMCyGFGh0dHA6Ly9jYS5tb2NrLm5lZHMvgRRjZXJ0bWFz
dGVyQG1vY2submVkczANBgkqhkiG9w0BAQsFAAOCAgEAQd9120OniDJ/TwfrSQYk
F6ia4b6E1lrhOKlE4K2GHJ5tD90YRBL6Drqj+pyPoIsK7lnKOdHvnYRGSIlFVYA2
3QUPy00HWzLfLWM44BM7NPHhLg7SHH5/bjhDqeC/PJmToOQtnzQfQfDmK8Kkf/vh
i9tcBsByAzbn1IozTltcTXHphOXxYG+Es+nDdKYBjktVe43QZ8xo+Q14bRAtteLr
Bun8ocxPT2KHeLC6TtX2iE6U4rTngP2aj6WIy4BtLpsihU1u0PPG/+UEYwC+QqR3
tDbysAOdrBKkbUYayo42aheR+YhDpqBonU1whsCYFsGZxVvepn9k+jTEe3ehWdfz
g6UZbH36PF8WgRsUHQFpJJbirEUYDhS72iPDgMO1XxJ32nlnuU+cHgSKPD5JGki1
TOobdez5zAUUF6OQfEgw/gNT0ZxOysFlrI9l0cSjHkYJnHwAbKUMOxJre3c3q6iX
x6IBt1gjEHmT5J9I7Ti6SpafOfZDgTHa40GZ6L1q2sru0W+pYhkFzGmrnqPRE9lU
XXuV9J5lr0HQmLQDQTf6gvYHWP+u538sOrls4JzxdfyW2t18WW10QhZUy7vtkFlg
quafVg4sPaYrroHRwGx0TUG+IjCy0Sl92AAx4C71vXRVnzljVc8NEQBp9m9oIqM4
j+ignDNXffW2vOQDrZ3kamY=
-----END CERTIFICATE-----
